
Byggern.elf:     file format elf32-avr

Sections:
Idx Name          Size      VMA       LMA       File off  Algn
  0 .data         00000138  00800100  0000218a  0000221e  2**0
                  CONTENTS, ALLOC, LOAD, DATA
  1 .text         0000218a  00000000  00000000  00000094  2**1
                  CONTENTS, ALLOC, LOAD, READONLY, CODE
  2 .bss          00000027  00800238  00800238  00002356  2**0
                  ALLOC
  3 .comment      0000005c  00000000  00000000  00002356  2**0
                  CONTENTS, READONLY
  4 .debug_aranges 00000340  00000000  00000000  000023b2  2**0
                  CONTENTS, READONLY, DEBUGGING
  5 .debug_info   0000316b  00000000  00000000  000026f2  2**0
                  CONTENTS, READONLY, DEBUGGING
  6 .debug_abbrev 00001356  00000000  00000000  0000585d  2**0
                  CONTENTS, READONLY, DEBUGGING
  7 .debug_line   00002168  00000000  00000000  00006bb3  2**0
                  CONTENTS, READONLY, DEBUGGING
  8 .debug_frame  0000088c  00000000  00000000  00008d1c  2**2
                  CONTENTS, READONLY, DEBUGGING
  9 .debug_str    000009ab  00000000  00000000  000095a8  2**0
                  CONTENTS, READONLY, DEBUGGING
 10 .debug_loc    00001d6f  00000000  00000000  00009f53  2**0
                  CONTENTS, READONLY, DEBUGGING
 11 .debug_ranges 00000318  00000000  00000000  0000bcc2  2**0
                  CONTENTS, READONLY, DEBUGGING

Disassembly of section .text:

00000000 <__vectors>:
       0:	54 c1       	rjmp	.+680    	; 0x2aa <__ctors_end>
       2:	00 00       	nop
       4:	6f c1       	rjmp	.+734    	; 0x2e4 <__bad_interrupt>
       6:	00 00       	nop
       8:	6d c1       	rjmp	.+730    	; 0x2e4 <__bad_interrupt>
       a:	00 00       	nop
       c:	85 c1       	rjmp	.+778    	; 0x318 <__vector_3>
       e:	00 00       	nop
      10:	69 c1       	rjmp	.+722    	; 0x2e4 <__bad_interrupt>
      12:	00 00       	nop
      14:	67 c1       	rjmp	.+718    	; 0x2e4 <__bad_interrupt>
      16:	00 00       	nop
      18:	65 c1       	rjmp	.+714    	; 0x2e4 <__bad_interrupt>
      1a:	00 00       	nop
      1c:	63 c1       	rjmp	.+710    	; 0x2e4 <__bad_interrupt>
      1e:	00 00       	nop
      20:	61 c1       	rjmp	.+706    	; 0x2e4 <__bad_interrupt>
      22:	00 00       	nop
      24:	5f c1       	rjmp	.+702    	; 0x2e4 <__bad_interrupt>
      26:	00 00       	nop
      28:	5d c1       	rjmp	.+698    	; 0x2e4 <__bad_interrupt>
      2a:	00 00       	nop
      2c:	5b c1       	rjmp	.+694    	; 0x2e4 <__bad_interrupt>
      2e:	00 00       	nop
      30:	59 c1       	rjmp	.+690    	; 0x2e4 <__bad_interrupt>
      32:	00 00       	nop
      34:	0c 94 fe 08 	jmp	0x11fc	; 0x11fc <__vector_13>
      38:	55 c1       	rjmp	.+682    	; 0x2e4 <__bad_interrupt>
      3a:	00 00       	nop
      3c:	53 c1       	rjmp	.+678    	; 0x2e4 <__bad_interrupt>
      3e:	00 00       	nop
      40:	51 c1       	rjmp	.+674    	; 0x2e4 <__bad_interrupt>
      42:	00 00       	nop
      44:	4f c1       	rjmp	.+670    	; 0x2e4 <__bad_interrupt>
      46:	00 00       	nop
      48:	4d c1       	rjmp	.+666    	; 0x2e4 <__bad_interrupt>
      4a:	00 00       	nop
      4c:	0c 94 50 09 	jmp	0x12a0	; 0x12a0 <__vector_19>
      50:	49 c1       	rjmp	.+658    	; 0x2e4 <__bad_interrupt>
      52:	00 00       	nop
      54:	47 c1       	rjmp	.+654    	; 0x2e4 <__bad_interrupt>
      56:	00 00       	nop
      58:	45 c1       	rjmp	.+650    	; 0x2e4 <__bad_interrupt>
      5a:	00 00       	nop
      5c:	43 c1       	rjmp	.+646    	; 0x2e4 <__bad_interrupt>
      5e:	00 00       	nop
      60:	41 c1       	rjmp	.+642    	; 0x2e4 <__bad_interrupt>
      62:	00 00       	nop
      64:	3f c1       	rjmp	.+638    	; 0x2e4 <__bad_interrupt>
      66:	00 00       	nop
      68:	3d c1       	rjmp	.+634    	; 0x2e4 <__bad_interrupt>
      6a:	00 00       	nop
      6c:	3b c1       	rjmp	.+630    	; 0x2e4 <__bad_interrupt>
      6e:	00 00       	nop
      70:	08 00       	.word	0x0008	; ????
      72:	00 00       	nop
      74:	be 92       	st	-X, r11
      76:	24 49       	sbci	r18, 0x94	; 148
      78:	12 3e       	cpi	r17, 0xE2	; 226
      7a:	ab aa       	std	Y+51, r10	; 0x33
      7c:	aa 2a       	or	r10, r26
      7e:	be cd       	rjmp	.-1156   	; 0xfffffbfc <__eeprom_end+0xff7efbfc>
      80:	cc cc       	rjmp	.-1640   	; 0xfffffa1a <__eeprom_end+0xff7efa1a>
      82:	4c 3e       	cpi	r20, 0xEC	; 236
      84:	00 00       	nop
      86:	00 80       	ld	r0, Z
      88:	be ab       	std	Y+54, r27	; 0x36
      8a:	aa aa       	std	Y+50, r10	; 0x32
      8c:	aa 3e       	cpi	r26, 0xEA	; 234
      8e:	00 00       	nop
      90:	00 00       	nop
      92:	bf 00       	.word	0x00bf	; ????
      94:	00 00       	nop
      96:	80 3f       	cpi	r24, 0xF0	; 240
      98:	00 00       	nop
      9a:	00 00       	nop
      9c:	00 08       	sbc	r0, r0
      9e:	41 78       	andi	r20, 0x81	; 129
      a0:	d3 bb       	out	0x13, r29	; 19
      a2:	43 87       	std	Z+11, r20	; 0x0b
      a4:	d1 13       	cpse	r29, r17
      a6:	3d 19       	sub	r19, r13
      a8:	0e 3c       	cpi	r16, 0xCE	; 206
      aa:	c3 bd       	out	0x23, r28	; 35
      ac:	42 82       	std	Z+2, r4	; 0x02
      ae:	ad 2b       	or	r26, r29
      b0:	3e 68       	ori	r19, 0x8E	; 142
      b2:	ec 82       	std	Y+4, r14	; 0x04
      b4:	76 be       	out	0x36, r7	; 54
      b6:	d9 8f       	std	Y+25, r29	; 0x19
      b8:	e1 a9       	ldd	r30, Z+49	; 0x31
      ba:	3e 4c       	sbci	r19, 0xCE	; 206
      bc:	80 ef       	ldi	r24, 0xF0	; 240
      be:	ff be       	out	0x3f, r15	; 63
      c0:	01 c4       	rjmp	.+2050   	; 0x8c4 <MENU_display_menu+0x2c>
      c2:	ff 7f       	andi	r31, 0xFF	; 255
      c4:	3f 00       	.word	0x003f	; ????
      c6:	00 00       	nop
	...

000000ca <__trampolines_end>:
      ca:	00 00       	nop
      cc:	00 00       	nop
      ce:	00 00       	nop
      d0:	00 5f       	subi	r16, 0xF0	; 240
      d2:	00 00       	nop
      d4:	00 07       	cpc	r16, r16
      d6:	00 07       	cpc	r16, r16
      d8:	00 14       	cp	r0, r0
      da:	7f 14       	cp	r7, r15
      dc:	7f 14       	cp	r7, r15
      de:	24 2a       	or	r2, r20
      e0:	7f 2a       	or	r7, r31
      e2:	12 23       	and	r17, r18
      e4:	13 08       	sbc	r1, r3
      e6:	64 62       	ori	r22, 0x24	; 36
      e8:	36 49       	sbci	r19, 0x96	; 150
      ea:	55 22       	and	r5, r21
      ec:	50 00       	.word	0x0050	; ????
      ee:	05 03       	mulsu	r16, r21
      f0:	00 00       	nop
      f2:	00 1c       	adc	r0, r0
      f4:	22 41       	sbci	r18, 0x12	; 18
      f6:	00 00       	nop
      f8:	41 22       	and	r4, r17
      fa:	1c 00       	.word	0x001c	; ????
      fc:	08 2a       	or	r0, r24
      fe:	1c 2a       	or	r1, r28
     100:	08 08       	sbc	r0, r8
     102:	08 3e       	cpi	r16, 0xE8	; 232
     104:	08 08       	sbc	r0, r8
     106:	00 50       	subi	r16, 0x00	; 0
     108:	30 00       	.word	0x0030	; ????
     10a:	00 08       	sbc	r0, r0
     10c:	08 08       	sbc	r0, r8
     10e:	08 08       	sbc	r0, r8
     110:	00 60       	ori	r16, 0x00	; 0
     112:	60 00       	.word	0x0060	; ????
     114:	00 20       	and	r0, r0
     116:	10 08       	sbc	r1, r0
     118:	04 02       	muls	r16, r20
     11a:	3e 51       	subi	r19, 0x1E	; 30
     11c:	49 45       	sbci	r20, 0x59	; 89
     11e:	3e 00       	.word	0x003e	; ????
     120:	42 7f       	andi	r20, 0xF2	; 242
     122:	40 00       	.word	0x0040	; ????
     124:	42 61       	ori	r20, 0x12	; 18
     126:	51 49       	sbci	r21, 0x91	; 145
     128:	46 21       	and	r20, r6
     12a:	41 45       	sbci	r20, 0x51	; 81
     12c:	4b 31       	cpi	r20, 0x1B	; 27
     12e:	18 14       	cp	r1, r8
     130:	12 7f       	andi	r17, 0xF2	; 242
     132:	10 27       	eor	r17, r16
     134:	45 45       	sbci	r20, 0x55	; 85
     136:	45 39       	cpi	r20, 0x95	; 149
     138:	3c 4a       	sbci	r19, 0xAC	; 172
     13a:	49 49       	sbci	r20, 0x99	; 153
     13c:	30 01       	movw	r6, r0
     13e:	71 09       	sbc	r23, r1
     140:	05 03       	mulsu	r16, r21
     142:	36 49       	sbci	r19, 0x96	; 150
     144:	49 49       	sbci	r20, 0x99	; 153
     146:	36 06       	cpc	r3, r22
     148:	49 49       	sbci	r20, 0x99	; 153
     14a:	29 1e       	adc	r2, r25
     14c:	00 36       	cpi	r16, 0x60	; 96
     14e:	36 00       	.word	0x0036	; ????
     150:	00 00       	nop
     152:	56 36       	cpi	r21, 0x66	; 102
     154:	00 00       	nop
     156:	00 08       	sbc	r0, r0
     158:	14 22       	and	r1, r20
     15a:	41 14       	cp	r4, r1
     15c:	14 14       	cp	r1, r4
     15e:	14 14       	cp	r1, r4
     160:	41 22       	and	r4, r17
     162:	14 08       	sbc	r1, r4
     164:	00 02       	muls	r16, r16
     166:	01 51       	subi	r16, 0x11	; 17
     168:	09 06       	cpc	r0, r25
     16a:	32 49       	sbci	r19, 0x92	; 146
     16c:	79 41       	sbci	r23, 0x19	; 25
     16e:	3e 7e       	andi	r19, 0xEE	; 238
     170:	11 11       	cpse	r17, r1
     172:	11 7e       	andi	r17, 0xE1	; 225
     174:	7f 49       	sbci	r23, 0x9F	; 159
     176:	49 49       	sbci	r20, 0x99	; 153
     178:	36 3e       	cpi	r19, 0xE6	; 230
     17a:	41 41       	sbci	r20, 0x11	; 17
     17c:	41 22       	and	r4, r17
     17e:	7f 41       	sbci	r23, 0x1F	; 31
     180:	41 22       	and	r4, r17
     182:	1c 7f       	andi	r17, 0xFC	; 252
     184:	49 49       	sbci	r20, 0x99	; 153
     186:	49 41       	sbci	r20, 0x19	; 25
     188:	7f 09       	sbc	r23, r15
     18a:	09 01       	movw	r0, r18
     18c:	01 3e       	cpi	r16, 0xE1	; 225
     18e:	41 41       	sbci	r20, 0x11	; 17
     190:	51 32       	cpi	r21, 0x21	; 33
     192:	7f 08       	sbc	r7, r15
     194:	08 08       	sbc	r0, r8
     196:	7f 00       	.word	0x007f	; ????
     198:	41 7f       	andi	r20, 0xF1	; 241
     19a:	41 00       	.word	0x0041	; ????
     19c:	20 40       	sbci	r18, 0x00	; 0
     19e:	41 3f       	cpi	r20, 0xF1	; 241
     1a0:	01 7f       	andi	r16, 0xF1	; 241
     1a2:	08 14       	cp	r0, r8
     1a4:	22 41       	sbci	r18, 0x12	; 18
     1a6:	7f 40       	sbci	r23, 0x0F	; 15
     1a8:	40 40       	sbci	r20, 0x00	; 0
     1aa:	40 7f       	andi	r20, 0xF0	; 240
     1ac:	02 04       	cpc	r0, r2
     1ae:	02 7f       	andi	r16, 0xF2	; 242
     1b0:	7f 04       	cpc	r7, r15
     1b2:	08 10       	cpse	r0, r8
     1b4:	7f 3e       	cpi	r23, 0xEF	; 239
     1b6:	41 41       	sbci	r20, 0x11	; 17
     1b8:	41 3e       	cpi	r20, 0xE1	; 225
     1ba:	7f 09       	sbc	r23, r15
     1bc:	09 09       	sbc	r16, r9
     1be:	06 3e       	cpi	r16, 0xE6	; 230
     1c0:	41 51       	subi	r20, 0x11	; 17
     1c2:	21 5e       	subi	r18, 0xE1	; 225
     1c4:	7f 09       	sbc	r23, r15
     1c6:	19 29       	or	r17, r9
     1c8:	46 46       	sbci	r20, 0x66	; 102
     1ca:	49 49       	sbci	r20, 0x99	; 153
     1cc:	49 31       	cpi	r20, 0x19	; 25
     1ce:	01 01       	movw	r0, r2
     1d0:	7f 01       	movw	r14, r30
     1d2:	01 3f       	cpi	r16, 0xF1	; 241
     1d4:	40 40       	sbci	r20, 0x00	; 0
     1d6:	40 3f       	cpi	r20, 0xF0	; 240
     1d8:	1f 20       	and	r1, r15
     1da:	40 20       	and	r4, r0
     1dc:	1f 7f       	andi	r17, 0xFF	; 255
     1de:	20 18       	sub	r2, r0
     1e0:	20 7f       	andi	r18, 0xF0	; 240
     1e2:	63 14       	cp	r6, r3
     1e4:	08 14       	cp	r0, r8
     1e6:	63 03       	mulsu	r22, r19
     1e8:	04 78       	andi	r16, 0x84	; 132
     1ea:	04 03       	mulsu	r16, r20
     1ec:	61 51       	subi	r22, 0x11	; 17
     1ee:	49 45       	sbci	r20, 0x59	; 89
     1f0:	43 00       	.word	0x0043	; ????
     1f2:	00 7f       	andi	r16, 0xF0	; 240
     1f4:	41 41       	sbci	r20, 0x11	; 17
     1f6:	02 04       	cpc	r0, r2
     1f8:	08 10       	cpse	r0, r8
     1fa:	20 41       	sbci	r18, 0x10	; 16
     1fc:	41 7f       	andi	r20, 0xF1	; 241
     1fe:	00 00       	nop
     200:	04 02       	muls	r16, r20
     202:	01 02       	muls	r16, r17
     204:	04 40       	sbci	r16, 0x04	; 4
     206:	40 40       	sbci	r20, 0x00	; 0
     208:	40 40       	sbci	r20, 0x00	; 0
     20a:	00 01       	movw	r0, r0
     20c:	02 04       	cpc	r0, r2
     20e:	00 20       	and	r0, r0
     210:	54 54       	subi	r21, 0x44	; 68
     212:	54 78       	andi	r21, 0x84	; 132
     214:	7f 48       	sbci	r23, 0x8F	; 143
     216:	44 44       	sbci	r20, 0x44	; 68
     218:	38 38       	cpi	r19, 0x88	; 136
     21a:	44 44       	sbci	r20, 0x44	; 68
     21c:	44 20       	and	r4, r4
     21e:	38 44       	sbci	r19, 0x48	; 72
     220:	44 48       	sbci	r20, 0x84	; 132
     222:	7f 38       	cpi	r23, 0x8F	; 143
     224:	54 54       	subi	r21, 0x44	; 68
     226:	54 18       	sub	r5, r4
     228:	08 7e       	andi	r16, 0xE8	; 232
     22a:	09 01       	movw	r0, r18
     22c:	02 08       	sbc	r0, r2
     22e:	14 54       	subi	r17, 0x44	; 68
     230:	54 3c       	cpi	r21, 0xC4	; 196
     232:	7f 08       	sbc	r7, r15
     234:	04 04       	cpc	r0, r4
     236:	78 00       	.word	0x0078	; ????
     238:	44 7d       	andi	r20, 0xD4	; 212
     23a:	40 00       	.word	0x0040	; ????
     23c:	20 40       	sbci	r18, 0x00	; 0
     23e:	44 3d       	cpi	r20, 0xD4	; 212
     240:	00 00       	nop
     242:	7f 10       	cpse	r7, r15
     244:	28 44       	sbci	r18, 0x48	; 72
     246:	00 41       	sbci	r16, 0x10	; 16
     248:	7f 40       	sbci	r23, 0x0F	; 15
     24a:	00 7c       	andi	r16, 0xC0	; 192
     24c:	04 18       	sub	r0, r4
     24e:	04 78       	andi	r16, 0x84	; 132
     250:	7c 08       	sbc	r7, r12
     252:	04 04       	cpc	r0, r4
     254:	78 38       	cpi	r23, 0x88	; 136
     256:	44 44       	sbci	r20, 0x44	; 68
     258:	44 38       	cpi	r20, 0x84	; 132
     25a:	7c 14       	cp	r7, r12
     25c:	14 14       	cp	r1, r4
     25e:	08 08       	sbc	r0, r8
     260:	14 14       	cp	r1, r4
     262:	18 7c       	andi	r17, 0xC8	; 200
     264:	7c 08       	sbc	r7, r12
     266:	04 04       	cpc	r0, r4
     268:	08 48       	sbci	r16, 0x88	; 136
     26a:	54 54       	subi	r21, 0x44	; 68
     26c:	54 20       	and	r5, r4
     26e:	04 3f       	cpi	r16, 0xF4	; 244
     270:	44 40       	sbci	r20, 0x04	; 4
     272:	20 3c       	cpi	r18, 0xC0	; 192
     274:	40 40       	sbci	r20, 0x00	; 0
     276:	20 7c       	andi	r18, 0xC0	; 192
     278:	1c 20       	and	r1, r12
     27a:	40 20       	and	r4, r0
     27c:	1c 3c       	cpi	r17, 0xCC	; 204
     27e:	40 30       	cpi	r20, 0x00	; 0
     280:	40 3c       	cpi	r20, 0xC0	; 192
     282:	44 28       	or	r4, r4
     284:	10 28       	or	r1, r0
     286:	44 0c       	add	r4, r4
     288:	50 50       	subi	r21, 0x00	; 0
     28a:	50 3c       	cpi	r21, 0xC0	; 192
     28c:	44 64       	ori	r20, 0x44	; 68
     28e:	54 4c       	sbci	r21, 0xC4	; 196
     290:	44 00       	.word	0x0044	; ????
     292:	08 36       	cpi	r16, 0x68	; 104
     294:	41 00       	.word	0x0041	; ????
     296:	00 00       	nop
     298:	7f 00       	.word	0x007f	; ????
     29a:	00 00       	nop
     29c:	41 36       	cpi	r20, 0x61	; 97
     29e:	08 00       	.word	0x0008	; ????
     2a0:	0c 12       	cpse	r0, r28
     2a2:	24 12       	cpse	r2, r20
     2a4:	0c 0c       	add	r0, r12
     2a6:	12 24       	eor	r1, r2
     2a8:	12 0c       	add	r1, r2

000002aa <__ctors_end>:
     2aa:	11 24       	eor	r1, r1
     2ac:	1f be       	out	0x3f, r1	; 63
     2ae:	cf ef       	ldi	r28, 0xFF	; 255
     2b0:	d4 e0       	ldi	r29, 0x04	; 4
     2b2:	de bf       	out	0x3e, r29	; 62
     2b4:	cd bf       	out	0x3d, r28	; 61

000002b6 <__do_copy_data>:
     2b6:	12 e0       	ldi	r17, 0x02	; 2
     2b8:	a0 e0       	ldi	r26, 0x00	; 0
     2ba:	b1 e0       	ldi	r27, 0x01	; 1
     2bc:	ea e8       	ldi	r30, 0x8A	; 138
     2be:	f1 e2       	ldi	r31, 0x21	; 33
     2c0:	02 c0       	rjmp	.+4      	; 0x2c6 <__do_copy_data+0x10>
     2c2:	05 90       	lpm	r0, Z+
     2c4:	0d 92       	st	X+, r0
     2c6:	a8 33       	cpi	r26, 0x38	; 56
     2c8:	b1 07       	cpc	r27, r17
     2ca:	d9 f7       	brne	.-10     	; 0x2c2 <__do_copy_data+0xc>

000002cc <__do_clear_bss>:
     2cc:	22 e0       	ldi	r18, 0x02	; 2
     2ce:	a8 e3       	ldi	r26, 0x38	; 56
     2d0:	b2 e0       	ldi	r27, 0x02	; 2
     2d2:	01 c0       	rjmp	.+2      	; 0x2d6 <.do_clear_bss_start>

000002d4 <.do_clear_bss_loop>:
     2d4:	1d 92       	st	X+, r1

000002d6 <.do_clear_bss_start>:
     2d6:	af 35       	cpi	r26, 0x5F	; 95
     2d8:	b2 07       	cpc	r27, r18
     2da:	e1 f7       	brne	.-8      	; 0x2d4 <.do_clear_bss_loop>
     2dc:	0e 94 77 09 	call	0x12ee	; 0x12ee <main>
     2e0:	0c 94 c3 10 	jmp	0x2186	; 0x2186 <_exit>

000002e4 <__bad_interrupt>:
     2e4:	8d ce       	rjmp	.-742    	; 0x0 <__vectors>

000002e6 <ADC_init>:



void ADC_init(void){
	// enable external reset
	MCUCR |= (1 << SRE);
     2e6:	85 b7       	in	r24, 0x35	; 53
     2e8:	80 68       	ori	r24, 0x80	; 128
     2ea:	85 bf       	out	0x35, r24	; 53
	
	DDRE &= ~(1<<PINE0);
     2ec:	30 98       	cbi	0x06, 0	; 6
		
	// mask pins, s. 32 i datablad atmega162
	SFIOR |= (1 << XMM2);
     2ee:	80 b7       	in	r24, 0x30	; 48
     2f0:	80 62       	ori	r24, 0x20	; 32
     2f2:	80 bf       	out	0x30, r24	; 48
		
	//interrupt on falling edge PE0
	EMCUCR &= ~(1<<ISC2);
     2f4:	86 b7       	in	r24, 0x36	; 54
     2f6:	8e 7f       	andi	r24, 0xFE	; 254
     2f8:	86 bf       	out	0x36, r24	; 54
	
	//Enable interrupts on PE0
	GICR |= (1<<INT2);
     2fa:	8b b7       	in	r24, 0x3b	; 59
     2fc:	80 62       	ori	r24, 0x20	; 32
     2fe:	8b bf       	out	0x3b, r24	; 59
	
	//Enable global interrupts
	sei();
     300:	78 94       	sei
     302:	08 95       	ret

00000304 <ADC_read>:

uint8_t ADC_read(channel ch){
	//venter til interrupt 
	
	volatile char *ext_ADCCH = (char *) ADC_START_ADDRESS;// starter addressen til adc
	ext_ADCCH[0] = ch; // *ext_ADC = ch
     304:	80 93 00 14 	sts	0x1400, r24
	
	
	while (PINE & (1<<PINE0)) {}
     308:	28 99       	sbic	0x05, 0	; 5
     30a:	fe cf       	rjmp	.-4      	; 0x308 <ADC_read+0x4>
	interrupt_flag = 1;
     30c:	81 e0       	ldi	r24, 0x01	; 1
     30e:	80 93 54 02 	sts	0x0254, r24

	
	return ext_ADCCH[0];	
     312:	80 91 00 14 	lds	r24, 0x1400
}
     316:	08 95       	ret

00000318 <__vector_3>:




ISR(INT2_vect){
     318:	1f 92       	push	r1
     31a:	0f 92       	push	r0
     31c:	0f b6       	in	r0, 0x3f	; 63
     31e:	0f 92       	push	r0
     320:	11 24       	eor	r1, r1
	interrupt_flag = 0;
     322:	10 92 54 02 	sts	0x0254, r1
     326:	0f 90       	pop	r0
     328:	0f be       	out	0x3f, r0	; 63
     32a:	0f 90       	pop	r0
     32c:	1f 90       	pop	r1
     32e:	18 95       	reti

00000330 <CAN_init>:
#include <util/delay.h>
#include <stdio.h>

void CAN_init(void){
	
	MCP2515_init();
     330:	b7 d1       	rcall	.+878    	; 0x6a0 <MCP2515_init>
	MCP2515_bit_modify(MCP_RXB0CTRL,0b01100100, 0b01100000);
     332:	40 e6       	ldi	r20, 0x60	; 96
     334:	64 e6       	ldi	r22, 0x64	; 100
     336:	80 e6       	ldi	r24, 0x60	; 96
     338:	9a d1       	rcall	.+820    	; 0x66e <MCP2515_bit_modify>
	MCP2515_bit_modify(MCP_CANCTRL,MODE_MASK, MODE_NORMAL);
     33a:	40 e0       	ldi	r20, 0x00	; 0
     33c:	60 ee       	ldi	r22, 0xE0	; 224
     33e:	8f e0       	ldi	r24, 0x0F	; 15
     340:	96 d1       	rcall	.+812    	; 0x66e <MCP2515_bit_modify>
	//MCP2515_bit_modify(MCP_CANINTE,0b00000001,0xff);
	MCP2515_bit_modify(MCP_RXB0CTRL,0b01100000,0xff);
     342:	4f ef       	ldi	r20, 0xFF	; 255
     344:	60 e6       	ldi	r22, 0x60	; 96
     346:	80 e6       	ldi	r24, 0x60	; 96
     348:	92 c1       	rjmp	.+804    	; 0x66e <MCP2515_bit_modify>
     34a:	08 95       	ret

0000034c <CAN_send_message>:
	
}


void CAN_send_message(can_message_t *message){
     34c:	1f 93       	push	r17
     34e:	cf 93       	push	r28
     350:	df 93       	push	r29
     352:	ec 01       	movw	r28, r24
	
	if (!(MCP2515_read(MCP_TXB0CTRL) & TX0_REQ)) {
     354:	80 e3       	ldi	r24, 0x30	; 48
     356:	58 d1       	rcall	.+688    	; 0x608 <MCP2515_read>
     358:	83 fd       	sbrc	r24, 3
     35a:	22 c0       	rjmp	.+68     	; 0x3a0 <CAN_send_message+0x54>
		
		//Writing id to Standard Identifier Buffer
		MCP2515_write(message->id>>3, MCP_TXB0SIDH); //SID 3:7
     35c:	88 81       	ld	r24, Y
     35e:	99 81       	ldd	r25, Y+1	; 0x01
     360:	96 95       	lsr	r25
     362:	87 95       	ror	r24
     364:	96 95       	lsr	r25
     366:	87 95       	ror	r24
     368:	96 95       	lsr	r25
     36a:	87 95       	ror	r24
     36c:	61 e3       	ldi	r22, 0x31	; 49
     36e:	59 d1       	rcall	.+690    	; 0x622 <MCP2515_write>
		MCP2515_write(message->id<<5, MCP_TXB0SIDL); //SID 0:2
     370:	88 81       	ld	r24, Y
     372:	62 e3       	ldi	r22, 0x32	; 50
     374:	82 95       	swap	r24
     376:	88 0f       	add	r24, r24
     378:	80 7e       	andi	r24, 0xE0	; 224
     37a:	53 d1       	rcall	.+678    	; 0x622 <MCP2515_write>
		
		//Writing data length code
		MCP2515_write((message->length), MCP_TXB0DLC);
     37c:	65 e3       	ldi	r22, 0x35	; 53
     37e:	8a 81       	ldd	r24, Y+2	; 0x02
     380:	50 d1       	rcall	.+672    	; 0x622 <MCP2515_write>
		
		//Writing data
		for (uint8_t i = 0; i < message->length; i++) {
     382:	8a 81       	ldd	r24, Y+2	; 0x02
     384:	88 23       	and	r24, r24
     386:	61 f0       	breq	.+24     	; 0x3a0 <CAN_send_message+0x54>
     388:	10 e0       	ldi	r17, 0x00	; 0
     38a:	66 e3       	ldi	r22, 0x36	; 54
     38c:	61 0f       	add	r22, r17
			MCP2515_write(message->data[i], MCP_TXB0D0+i);
     38e:	fe 01       	movw	r30, r28
     390:	e1 0f       	add	r30, r17
     392:	f1 1d       	adc	r31, r1
     394:	83 81       	ldd	r24, Z+3	; 0x03
     396:	45 d1       	rcall	.+650    	; 0x622 <MCP2515_write>
		
		//Writing data length code
		MCP2515_write((message->length), MCP_TXB0DLC);
		
		//Writing data
		for (uint8_t i = 0; i < message->length; i++) {
     398:	1f 5f       	subi	r17, 0xFF	; 255
     39a:	8a 81       	ldd	r24, Y+2	; 0x02
     39c:	18 17       	cp	r17, r24
     39e:	a8 f3       	brcs	.-22     	; 0x38a <CAN_send_message+0x3e>
			MCP2515_write(message->data[i], MCP_TXB0D0+i);
		}
	}
	
	MCP2515_request_to_send(MCP_RTS_TX0);
     3a0:	81 e8       	ldi	r24, 0x81	; 129
     3a2:	4e d1       	rcall	.+668    	; 0x640 <MCP2515_request_to_send>
	
}
     3a4:	df 91       	pop	r29
     3a6:	cf 91       	pop	r28
     3a8:	1f 91       	pop	r17
     3aa:	08 95       	ret

000003ac <CAN_recieve_data>:


void CAN_recieve_data(can_message_t *message){
     3ac:	1f 93       	push	r17
     3ae:	cf 93       	push	r28
     3b0:	df 93       	push	r29
     3b2:	ec 01       	movw	r28, r24
	
	
	if(MCP2515_read(MCP_CANINTF) & 1) {
     3b4:	8c e2       	ldi	r24, 0x2C	; 44
     3b6:	28 d1       	rcall	.+592    	; 0x608 <MCP2515_read>
     3b8:	80 ff       	sbrs	r24, 0
     3ba:	2f c0       	rjmp	.+94     	; 0x41a <CAN_recieve_data+0x6e>
	#else
		//round up by default
		__ticks_dc = (uint32_t)(ceil(fabs(__tmp)));
	#endif

	__builtin_avr_delay_cycles(__ticks_dc);
     3bc:	80 e0       	ldi	r24, 0x00	; 0
     3be:	90 ef       	ldi	r25, 0xF0	; 240
     3c0:	01 97       	sbiw	r24, 0x01	; 1
     3c2:	f1 f7       	brne	.-4      	; 0x3c0 <CAN_recieve_data+0x14>
		
		_delay_ms(50);
		
		//Retrieving id from Standard Identifier Buffer
		message->id = 0x7ff & (MCP2515_read(MCP_RXB0SIDH)<<3 | MCP2515_read(MCP_RXB0SIDL)>>5);
     3c4:	81 e6       	ldi	r24, 0x61	; 97
     3c6:	20 d1       	rcall	.+576    	; 0x608 <MCP2515_read>
     3c8:	18 2f       	mov	r17, r24
     3ca:	82 e6       	ldi	r24, 0x62	; 98
     3cc:	1d d1       	rcall	.+570    	; 0x608 <MCP2515_read>
     3ce:	48 2f       	mov	r20, r24
     3d0:	42 95       	swap	r20
     3d2:	46 95       	lsr	r20
     3d4:	47 70       	andi	r20, 0x07	; 7
     3d6:	21 2f       	mov	r18, r17
     3d8:	30 e0       	ldi	r19, 0x00	; 0
     3da:	c9 01       	movw	r24, r18
     3dc:	88 0f       	add	r24, r24
     3de:	99 1f       	adc	r25, r25
     3e0:	88 0f       	add	r24, r24
     3e2:	99 1f       	adc	r25, r25
     3e4:	88 0f       	add	r24, r24
     3e6:	99 1f       	adc	r25, r25
     3e8:	84 2b       	or	r24, r20
     3ea:	99 83       	std	Y+1, r25	; 0x01
     3ec:	88 83       	st	Y, r24
		
		//Retrieving length
		message->length = MCP2515_read(MCP_RXB0DLC) & DLC_MASK;
     3ee:	85 e6       	ldi	r24, 0x65	; 101
     3f0:	0b d1       	rcall	.+534    	; 0x608 <MCP2515_read>
     3f2:	87 70       	andi	r24, 0x07	; 7
     3f4:	8a 83       	std	Y+2, r24	; 0x02
		
		//Retrieving data
		for (uint8_t i = 0; i < message->length; i++) {
     3f6:	88 23       	and	r24, r24
     3f8:	61 f0       	breq	.+24     	; 0x412 <CAN_recieve_data+0x66>
     3fa:	10 e0       	ldi	r17, 0x00	; 0
			message->data[i] = MCP2515_read(MCP_RXB0D0+i);
     3fc:	86 e6       	ldi	r24, 0x66	; 102
     3fe:	81 0f       	add	r24, r17
     400:	03 d1       	rcall	.+518    	; 0x608 <MCP2515_read>
     402:	fe 01       	movw	r30, r28
     404:	e1 0f       	add	r30, r17
     406:	f1 1d       	adc	r31, r1
     408:	83 83       	std	Z+3, r24	; 0x03
		
		//Retrieving length
		message->length = MCP2515_read(MCP_RXB0DLC) & DLC_MASK;
		
		//Retrieving data
		for (uint8_t i = 0; i < message->length; i++) {
     40a:	1f 5f       	subi	r17, 0xFF	; 255
     40c:	8a 81       	ldd	r24, Y+2	; 0x02
     40e:	18 17       	cp	r17, r24
     410:	a8 f3       	brcs	.-22     	; 0x3fc <CAN_recieve_data+0x50>
			message->data[i] = MCP2515_read(MCP_RXB0D0+i);
		}
		
		MCP2515_bit_modify(MCP_CANINTF, 0b00000001, 0b00000000);
     412:	40 e0       	ldi	r20, 0x00	; 0
     414:	61 e0       	ldi	r22, 0x01	; 1
     416:	8c e2       	ldi	r24, 0x2C	; 44
     418:	2a d1       	rcall	.+596    	; 0x66e <MCP2515_bit_modify>
	}
	
}
     41a:	df 91       	pop	r29
     41c:	cf 91       	pop	r28
     41e:	1f 91       	pop	r17
     420:	08 95       	ret

00000422 <CAN_print_message>:



void CAN_print_message(can_message_t message) {
     422:	cf 92       	push	r12
     424:	df 92       	push	r13
     426:	ef 92       	push	r14
     428:	ff 92       	push	r15
     42a:	0f 93       	push	r16
     42c:	1f 93       	push	r17
     42e:	cf 93       	push	r28
     430:	df 93       	push	r29
     432:	cd b7       	in	r28, 0x3d	; 61
     434:	de b7       	in	r29, 0x3e	; 62
     436:	2b 97       	sbiw	r28, 0x0b	; 11
     438:	0f b6       	in	r0, 0x3f	; 63
     43a:	f8 94       	cli
     43c:	de bf       	out	0x3e, r29	; 62
     43e:	0f be       	out	0x3f, r0	; 63
     440:	cd bf       	out	0x3d, r28	; 61
     442:	e9 82       	std	Y+1, r14	; 0x01
     444:	fa 82       	std	Y+2, r15	; 0x02
     446:	c0 2e       	mov	r12, r16
     448:	0b 83       	std	Y+3, r16	; 0x03
     44a:	1c 83       	std	Y+4, r17	; 0x04
     44c:	2d 83       	std	Y+5, r18	; 0x05
     44e:	3e 83       	std	Y+6, r19	; 0x06
     450:	4f 83       	std	Y+7, r20	; 0x07
     452:	58 87       	std	Y+8, r21	; 0x08
     454:	69 87       	std	Y+9, r22	; 0x09
     456:	7a 87       	std	Y+10, r23	; 0x0a
     458:	8b 87       	std	Y+11, r24	; 0x0b
	
	//Printing ID and length
	printf("MESSAGE: \nID: %d\nLength: %d\nData: ", message.id, message.length);
     45a:	1f 92       	push	r1
     45c:	0f 93       	push	r16
     45e:	8a 81       	ldd	r24, Y+2	; 0x02
     460:	8f 93       	push	r24
     462:	89 81       	ldd	r24, Y+1	; 0x01
     464:	8f 93       	push	r24
     466:	87 e0       	ldi	r24, 0x07	; 7
     468:	91 e0       	ldi	r25, 0x01	; 1
     46a:	9f 93       	push	r25
     46c:	8f 93       	push	r24
     46e:	0e 94 b4 0d 	call	0x1b68	; 0x1b68 <printf>
	
	//Printing data
	for (uint8_t i = 0; i < message.length; i++) {
     472:	0f 90       	pop	r0
     474:	0f 90       	pop	r0
     476:	0f 90       	pop	r0
     478:	0f 90       	pop	r0
     47a:	0f 90       	pop	r0
     47c:	0f 90       	pop	r0
     47e:	00 23       	and	r16, r16
     480:	b9 f0       	breq	.+46     	; 0x4b0 <CAN_print_message+0x8e>
     482:	7e 01       	movw	r14, r28
     484:	84 e0       	ldi	r24, 0x04	; 4
     486:	e8 0e       	add	r14, r24
     488:	f1 1c       	adc	r15, r1
     48a:	d1 2c       	mov	r13, r1
		printf("%d ", message.data[i]);
     48c:	0a e2       	ldi	r16, 0x2A	; 42
     48e:	11 e0       	ldi	r17, 0x01	; 1
     490:	f7 01       	movw	r30, r14
     492:	81 91       	ld	r24, Z+
     494:	7f 01       	movw	r14, r30
     496:	1f 92       	push	r1
     498:	8f 93       	push	r24
     49a:	1f 93       	push	r17
     49c:	0f 93       	push	r16
     49e:	0e 94 b4 0d 	call	0x1b68	; 0x1b68 <printf>
	
	//Printing ID and length
	printf("MESSAGE: \nID: %d\nLength: %d\nData: ", message.id, message.length);
	
	//Printing data
	for (uint8_t i = 0; i < message.length; i++) {
     4a2:	d3 94       	inc	r13
     4a4:	0f 90       	pop	r0
     4a6:	0f 90       	pop	r0
     4a8:	0f 90       	pop	r0
     4aa:	0f 90       	pop	r0
     4ac:	dc 10       	cpse	r13, r12
     4ae:	f0 cf       	rjmp	.-32     	; 0x490 <CAN_print_message+0x6e>
		printf("%d ", message.data[i]);
	}
	printf("\n\n");
     4b0:	89 e2       	ldi	r24, 0x29	; 41
     4b2:	92 e0       	ldi	r25, 0x02	; 2
     4b4:	0e 94 c5 0d 	call	0x1b8a	; 0x1b8a <puts>
	
     4b8:	2b 96       	adiw	r28, 0x0b	; 11
     4ba:	0f b6       	in	r0, 0x3f	; 63
     4bc:	f8 94       	cli
     4be:	de bf       	out	0x3e, r29	; 62
     4c0:	0f be       	out	0x3f, r0	; 63
     4c2:	cd bf       	out	0x3d, r28	; 61
     4c4:	df 91       	pop	r29
     4c6:	cf 91       	pop	r28
     4c8:	1f 91       	pop	r17
     4ca:	0f 91       	pop	r16
     4cc:	ff 90       	pop	r15
     4ce:	ef 90       	pop	r14
     4d0:	df 90       	pop	r13
     4d2:	cf 90       	pop	r12
     4d4:	08 95       	ret

000004d6 <EEPROM_write>:
#include "eeprom.h"

void EEPROM_write(uint8_t address, uint8_t data){
	
	//waiting until write enable is set
	while(EECR & (1<<EEWE)){} 
     4d6:	e1 99       	sbic	0x1c, 1	; 28
     4d8:	fe cf       	rjmp	.-4      	; 0x4d6 <EEPROM_write>
		
	//setting address register
	EEAR = address;	
     4da:	90 e0       	ldi	r25, 0x00	; 0
     4dc:	9f bb       	out	0x1f, r25	; 31
     4de:	8e bb       	out	0x1e, r24	; 30
		
	//setting data register
	EEDR = data;
     4e0:	6d bb       	out	0x1d, r22	; 29
	
	//master wrte enable			
	EECR |= (1<<EEMWE);			
     4e2:	e2 9a       	sbi	0x1c, 2	; 28
	
	//start EEPROM write
	EECR |= (1<<EEWE);
     4e4:	e1 9a       	sbi	0x1c, 1	; 28
     4e6:	08 95       	ret

000004e8 <EEPROM_read>:
				

char* EEPROM_read(uint8_t address){
	
	//waiting until read enable
	while (EECR & (1 << EEWE)); 
     4e8:	e1 99       	sbic	0x1c, 1	; 28
     4ea:	fe cf       	rjmp	.-4      	; 0x4e8 <EEPROM_read>
	
	EEAR = address;
     4ec:	90 e0       	ldi	r25, 0x00	; 0
     4ee:	9f bb       	out	0x1f, r25	; 31
     4f0:	8e bb       	out	0x1e, r24	; 30
	
	//reading address				
	EECR |= (1<<EERE);
     4f2:	e0 9a       	sbi	0x1c, 0	; 28
	
	return EEDR;
     4f4:	8d b3       	in	r24, 0x1d	; 29
     4f6:	90 e0       	ldi	r25, 0x00	; 0
     4f8:	08 95       	ret

000004fa <JOY_init>:

void JOY_calibrate(){
	
	corr_x = 0 - ADC_read(joyX) -127;
	corr_y = 0 - ADC_read(joyY)- 127;
}
     4fa:	f5 de       	rcall	.-534    	; 0x2e6 <ADC_init>
     4fc:	b8 98       	cbi	0x17, 0	; 23
     4fe:	b9 98       	cbi	0x17, 1	; 23
     500:	ba 98       	cbi	0x17, 2	; 23
     502:	c2 9a       	sbi	0x18, 2	; 24
     504:	08 95       	ret

00000506 <JOY_getPosition>:



JOY_position_t JOY_getPosition(void) {
     506:	cf 93       	push	r28
     508:	df 93       	push	r29
	JOY_position_t pos;
	
	//reading ADC and scaling to 8-bit
	pos.X = (int)((ADC_read(joyX)*0.7874)) + corr_x - 100;
     50a:	85 e0       	ldi	r24, 0x05	; 5
     50c:	fb de       	rcall	.-522    	; 0x304 <ADC_read>
     50e:	68 2f       	mov	r22, r24
     510:	70 e0       	ldi	r23, 0x00	; 0
     512:	80 e0       	ldi	r24, 0x00	; 0
     514:	90 e0       	ldi	r25, 0x00	; 0
     516:	bb d7       	rcall	.+3958   	; 0x148e <__floatsisf>
     518:	2c e0       	ldi	r18, 0x0C	; 12
     51a:	33 e9       	ldi	r19, 0x93	; 147
     51c:	49 e4       	ldi	r20, 0x49	; 73
     51e:	5f e3       	ldi	r21, 0x3F	; 63
     520:	0e 94 71 0b 	call	0x16e2	; 0x16e2 <__mulsf3>
     524:	81 d7       	rcall	.+3842   	; 0x1428 <__fixsfsi>
     526:	c0 91 39 02 	lds	r28, 0x0239
     52a:	dd 27       	eor	r29, r29
     52c:	c7 fd       	sbrc	r28, 7
     52e:	d0 95       	com	r29
     530:	6c 0f       	add	r22, r28
     532:	7d 1f       	adc	r23, r29
     534:	eb 01       	movw	r28, r22
     536:	c4 56       	subi	r28, 0x64	; 100
     538:	d1 09       	sbc	r29, r1
	pos.Y = (int) ((ADC_read(joyY)*0.7874)) + corr_y - 100;
     53a:	84 e0       	ldi	r24, 0x04	; 4
     53c:	e3 de       	rcall	.-570    	; 0x304 <ADC_read>
     53e:	68 2f       	mov	r22, r24
     540:	70 e0       	ldi	r23, 0x00	; 0
     542:	80 e0       	ldi	r24, 0x00	; 0
     544:	90 e0       	ldi	r25, 0x00	; 0
     546:	a3 d7       	rcall	.+3910   	; 0x148e <__floatsisf>
     548:	2c e0       	ldi	r18, 0x0C	; 12
     54a:	33 e9       	ldi	r19, 0x93	; 147
     54c:	49 e4       	ldi	r20, 0x49	; 73
     54e:	5f e3       	ldi	r21, 0x3F	; 63
     550:	0e 94 71 0b 	call	0x16e2	; 0x16e2 <__mulsf3>
     554:	69 d7       	rcall	.+3794   	; 0x1428 <__fixsfsi>
     556:	20 91 38 02 	lds	r18, 0x0238
     55a:	33 27       	eor	r19, r19
     55c:	27 fd       	sbrc	r18, 7
     55e:	30 95       	com	r19
     560:	26 0f       	add	r18, r22
     562:	37 1f       	adc	r19, r23
	
	
	return pos;
     564:	be 01       	movw	r22, r28
     566:	c9 01       	movw	r24, r18
     568:	84 56       	subi	r24, 0x64	; 100
     56a:	91 09       	sbc	r25, r1
}
     56c:	df 91       	pop	r29
     56e:	cf 91       	pop	r28
     570:	08 95       	ret

00000572 <JOY_getDirection>:


JOY_direction_t JOY_getDirection(void) {
     572:	0f 93       	push	r16
     574:	1f 93       	push	r17
     576:	cf 93       	push	r28
     578:	df 93       	push	r29
	
	JOY_position_t pos = JOY_getPosition();
     57a:	c5 df       	rcall	.-118    	; 0x506 <JOY_getPosition>
     57c:	8b 01       	movw	r16, r22
     57e:	9c 01       	movw	r18, r24
     580:	fb 01       	movw	r30, r22
     582:	e9 01       	movw	r28, r18
	
	//creating a fraction to determine if the joystick is mostly x or y oriented
	double frac = pos.X/pos.Y;
     584:	cb 01       	movw	r24, r22
     586:	b9 01       	movw	r22, r18
     588:	0e 94 f9 0b 	call	0x17f2	; 0x17f2 <__divmodhi4>
     58c:	cb 01       	movw	r24, r22
	
	
	//creating an area near neutral position where small changes does not make a change in direction
	if (abs(pos.X) <= 25 && abs(pos.Y) <= 25) {
     58e:	a8 01       	movw	r20, r16
     590:	47 5e       	subi	r20, 0xE7	; 231
     592:	5f 4f       	sbci	r21, 0xFF	; 255
     594:	43 33       	cpi	r20, 0x33	; 51
     596:	51 05       	cpc	r21, r1
     598:	28 f4       	brcc	.+10     	; 0x5a4 <JOY_getDirection+0x32>
     59a:	27 5e       	subi	r18, 0xE7	; 231
     59c:	3f 4f       	sbci	r19, 0xFF	; 255
     59e:	23 33       	cpi	r18, 0x33	; 51
     5a0:	31 05       	cpc	r19, r1
     5a2:	20 f1       	brcs	.+72     	; 0x5ec <JOY_getDirection+0x7a>
		return neutral;
	}
	
	if (pos.X > 0 && abs(frac) > 1) {
     5a4:	1e 16       	cp	r1, r30
     5a6:	1f 06       	cpc	r1, r31
     5a8:	54 f4       	brge	.+20     	; 0x5be <JOY_getDirection+0x4c>
     5aa:	9b 01       	movw	r18, r22
     5ac:	99 23       	and	r25, r25
     5ae:	24 f4       	brge	.+8      	; 0x5b8 <JOY_getDirection+0x46>
     5b0:	22 27       	eor	r18, r18
     5b2:	33 27       	eor	r19, r19
     5b4:	26 1b       	sub	r18, r22
     5b6:	37 0b       	sbc	r19, r23
     5b8:	22 30       	cpi	r18, 0x02	; 2
     5ba:	31 05       	cpc	r19, r1
     5bc:	cc f4       	brge	.+50     	; 0x5f0 <JOY_getDirection+0x7e>
		return right;
	}
	else if (pos.X < 0 && abs(frac) > 1) {
     5be:	ff 23       	and	r31, r31
     5c0:	54 f4       	brge	.+20     	; 0x5d6 <JOY_getDirection+0x64>
     5c2:	9b 01       	movw	r18, r22
     5c4:	99 23       	and	r25, r25
     5c6:	24 f4       	brge	.+8      	; 0x5d0 <JOY_getDirection+0x5e>
     5c8:	22 27       	eor	r18, r18
     5ca:	33 27       	eor	r19, r19
     5cc:	26 1b       	sub	r18, r22
     5ce:	37 0b       	sbc	r19, r23
     5d0:	22 30       	cpi	r18, 0x02	; 2
     5d2:	31 05       	cpc	r19, r1
     5d4:	7c f4       	brge	.+30     	; 0x5f4 <JOY_getDirection+0x82>
		return left;
	}
	else if (pos.Y > 0 && abs(frac) < 1) {
     5d6:	1c 16       	cp	r1, r28
     5d8:	1d 06       	cpc	r1, r29
     5da:	1c f4       	brge	.+6      	; 0x5e2 <JOY_getDirection+0x70>
     5dc:	89 2b       	or	r24, r25
     5de:	29 f4       	brne	.+10     	; 0x5ea <JOY_getDirection+0x78>
     5e0:	0b c0       	rjmp	.+22     	; 0x5f8 <JOY_getDirection+0x86>
		return up;
	}
	else if (pos.Y < 0 && abs(frac) < 1) {
     5e2:	dd 23       	and	r29, r29
     5e4:	14 f4       	brge	.+4      	; 0x5ea <JOY_getDirection+0x78>
     5e6:	89 2b       	or	r24, r25
     5e8:	49 f0       	breq	.+18     	; 0x5fc <JOY_getDirection+0x8a>
     5ea:	09 c0       	rjmp	.+18     	; 0x5fe <JOY_getDirection+0x8c>
	double frac = pos.X/pos.Y;
	
	
	//creating an area near neutral position where small changes does not make a change in direction
	if (abs(pos.X) <= 25 && abs(pos.Y) <= 25) {
		return neutral;
     5ec:	84 e0       	ldi	r24, 0x04	; 4
     5ee:	07 c0       	rjmp	.+14     	; 0x5fe <JOY_getDirection+0x8c>
	}
	
	if (pos.X > 0 && abs(frac) > 1) {
		return right;
     5f0:	81 e0       	ldi	r24, 0x01	; 1
     5f2:	05 c0       	rjmp	.+10     	; 0x5fe <JOY_getDirection+0x8c>
	}
	else if (pos.X < 0 && abs(frac) > 1) {
		return left;
     5f4:	80 e0       	ldi	r24, 0x00	; 0
     5f6:	03 c0       	rjmp	.+6      	; 0x5fe <JOY_getDirection+0x8c>
	}
	else if (pos.Y > 0 && abs(frac) < 1) {
		return up;
     5f8:	82 e0       	ldi	r24, 0x02	; 2
     5fa:	01 c0       	rjmp	.+2      	; 0x5fe <JOY_getDirection+0x8c>
	}
	else if (pos.Y < 0 && abs(frac) < 1) {
		return down;
     5fc:	83 e0       	ldi	r24, 0x03	; 3
	}

}
     5fe:	df 91       	pop	r29
     600:	cf 91       	pop	r28
     602:	1f 91       	pop	r17
     604:	0f 91       	pop	r16
     606:	08 95       	ret

00000608 <MCP2515_read>:
	
	SPI_disable_chipselect();
	
	return val;
	
}
     608:	cf 93       	push	r28
     60a:	c8 2f       	mov	r28, r24
     60c:	ec d5       	rcall	.+3032   	; 0x11e6 <SPI_enable_chipselect>
     60e:	83 e0       	ldi	r24, 0x03	; 3
     610:	e0 d5       	rcall	.+3008   	; 0x11d2 <SPI_send>
     612:	8c 2f       	mov	r24, r28
     614:	de d5       	rcall	.+3004   	; 0x11d2 <SPI_send>
     616:	e1 d5       	rcall	.+3010   	; 0x11da <SPI_read>
     618:	c8 2f       	mov	r28, r24
     61a:	e7 d5       	rcall	.+3022   	; 0x11ea <SPI_disable_chipselect>
     61c:	8c 2f       	mov	r24, r28
     61e:	cf 91       	pop	r28
     620:	08 95       	ret

00000622 <MCP2515_write>:
     622:	cf 93       	push	r28
     624:	df 93       	push	r29
     626:	c8 2f       	mov	r28, r24
     628:	d6 2f       	mov	r29, r22
     62a:	dd d5       	rcall	.+3002   	; 0x11e6 <SPI_enable_chipselect>
     62c:	82 e0       	ldi	r24, 0x02	; 2
     62e:	d1 d5       	rcall	.+2978   	; 0x11d2 <SPI_send>
     630:	8d 2f       	mov	r24, r29
     632:	cf d5       	rcall	.+2974   	; 0x11d2 <SPI_send>
     634:	8c 2f       	mov	r24, r28
     636:	cd d5       	rcall	.+2970   	; 0x11d2 <SPI_send>
     638:	d8 d5       	rcall	.+2992   	; 0x11ea <SPI_disable_chipselect>
     63a:	df 91       	pop	r29
     63c:	cf 91       	pop	r28
     63e:	08 95       	ret

00000640 <MCP2515_request_to_send>:
     640:	cf 93       	push	r28
     642:	c8 2f       	mov	r28, r24
     644:	d0 d5       	rcall	.+2976   	; 0x11e6 <SPI_enable_chipselect>
     646:	c1 30       	cpi	r28, 0x01	; 1
     648:	39 f0       	breq	.+14     	; 0x658 <MCP2515_request_to_send+0x18>
     64a:	18 f0       	brcs	.+6      	; 0x652 <MCP2515_request_to_send+0x12>
     64c:	c2 30       	cpi	r28, 0x02	; 2
     64e:	39 f0       	breq	.+14     	; 0x65e <MCP2515_request_to_send+0x1e>
     650:	09 c0       	rjmp	.+18     	; 0x664 <MCP2515_request_to_send+0x24>
     652:	81 e8       	ldi	r24, 0x81	; 129
     654:	be d5       	rcall	.+2940   	; 0x11d2 <SPI_send>
     656:	08 c0       	rjmp	.+16     	; 0x668 <MCP2515_request_to_send+0x28>
     658:	82 e8       	ldi	r24, 0x82	; 130
     65a:	bb d5       	rcall	.+2934   	; 0x11d2 <SPI_send>
     65c:	05 c0       	rjmp	.+10     	; 0x668 <MCP2515_request_to_send+0x28>
     65e:	84 e8       	ldi	r24, 0x84	; 132
     660:	b8 d5       	rcall	.+2928   	; 0x11d2 <SPI_send>
     662:	02 c0       	rjmp	.+4      	; 0x668 <MCP2515_request_to_send+0x28>
     664:	87 e8       	ldi	r24, 0x87	; 135
     666:	b5 d5       	rcall	.+2922   	; 0x11d2 <SPI_send>
     668:	c0 d5       	rcall	.+2944   	; 0x11ea <SPI_disable_chipselect>
     66a:	cf 91       	pop	r28
     66c:	08 95       	ret

0000066e <MCP2515_bit_modify>:

void MCP2515_bit_modify(uint8_t addr, uint8_t maskbyte, uint8_t databyte){
     66e:	1f 93       	push	r17
     670:	cf 93       	push	r28
     672:	df 93       	push	r29
     674:	18 2f       	mov	r17, r24
     676:	d6 2f       	mov	r29, r22
     678:	c4 2f       	mov	r28, r20
	
	SPI_enable_chipselect();
     67a:	b5 d5       	rcall	.+2922   	; 0x11e6 <SPI_enable_chipselect>
	
	SPI_send(MCP_BITMOD);
     67c:	85 e0       	ldi	r24, 0x05	; 5
     67e:	a9 d5       	rcall	.+2898   	; 0x11d2 <SPI_send>
	SPI_send(addr);
     680:	81 2f       	mov	r24, r17
     682:	a7 d5       	rcall	.+2894   	; 0x11d2 <SPI_send>
	SPI_send(maskbyte);
     684:	8d 2f       	mov	r24, r29
     686:	a5 d5       	rcall	.+2890   	; 0x11d2 <SPI_send>
	SPI_send(databyte);
     688:	8c 2f       	mov	r24, r28
     68a:	a3 d5       	rcall	.+2886   	; 0x11d2 <SPI_send>
	
	SPI_disable_chipselect();
     68c:	ae d5       	rcall	.+2908   	; 0x11ea <SPI_disable_chipselect>
	
}
     68e:	df 91       	pop	r29
     690:	cf 91       	pop	r28
     692:	1f 91       	pop	r17
     694:	08 95       	ret

00000696 <MCP2515_reset>:


void MCP2515_reset(){
	
	//Pulling CS to low
	SPI_enable_chipselect();
     696:	a7 d5       	rcall	.+2894   	; 0x11e6 <SPI_enable_chipselect>
			
	SPI_send(MCP_RESET);
     698:	80 ec       	ldi	r24, 0xC0	; 192
     69a:	9b d5       	rcall	.+2870   	; 0x11d2 <SPI_send>
	
	//Pulling CS to high
	SPI_disable_chipselect();		
     69c:	a6 c5       	rjmp	.+2892   	; 0x11ea <SPI_disable_chipselect>
     69e:	08 95       	ret

000006a0 <MCP2515_init>:
#include <stdint.h>
#include <util/delay.h>

void MCP2515_init() {
	
	SPI_init();
     6a0:	8e d5       	rcall	.+2844   	; 0x11be <SPI_init>
	
	MCP2515_reset();
     6a2:	f9 df       	rcall	.-14     	; 0x696 <MCP2515_reset>
     6a4:	8c ec       	ldi	r24, 0xCC	; 204
     6a6:	94 e0       	ldi	r25, 0x04	; 4
     6a8:	01 97       	sbiw	r24, 0x01	; 1
     6aa:	f1 f7       	brne	.-4      	; 0x6a8 <MCP2515_init+0x8>
     6ac:	00 c0       	rjmp	.+0      	; 0x6ae <MCP2515_init+0xe>
     6ae:	00 00       	nop
	_delay_ms(1);
	
	//Test configuration mode after reset
	uint8_t val;
	val = MCP2515_read(MCP_CANSTAT);
     6b0:	8e e0       	ldi	r24, 0x0E	; 14
     6b2:	aa df       	rcall	.-172    	; 0x608 <MCP2515_read>
	if((val & MODE_MASK) != MODE_CONFIG) {
     6b4:	80 7e       	andi	r24, 0xE0	; 224
     6b6:	80 38       	cpi	r24, 0x80	; 128
     6b8:	21 f0       	breq	.+8      	; 0x6c2 <MCP2515_init+0x22>
		printf("MCP2515 in NOT in configuration mode after reset!\n");
     6ba:	8e e2       	ldi	r24, 0x2E	; 46
     6bc:	91 e0       	ldi	r25, 0x01	; 1
     6be:	0c 94 c5 0d 	jmp	0x1b8a	; 0x1b8a <puts>
     6c2:	08 95       	ret

000006c4 <MENU_scream_mode>:


void MENU_clear_highscores(void){
	EEPROM_write(HIGHSCORE_1_ADDRESS,0);
	EEPROM_write(HIGHSCORE_2_ADDRESS,0);
	EEPROM_write(HIGHSCORE_3_ADDRESS,0);
     6c4:	bb 9a       	sbi	0x17, 3	; 23
     6c6:	c3 98       	cbi	0x18, 3	; 24
     6c8:	08 95       	ret

000006ca <MENU_normal_mode>:
     6ca:	bb 9a       	sbi	0x17, 3	; 23
     6cc:	c3 9a       	sbi	0x18, 3	; 24
     6ce:	08 95       	ret

000006d0 <MENU_wireless_mode>:
     6d0:	cf 93       	push	r28
     6d2:	df 93       	push	r29
     6d4:	cd b7       	in	r28, 0x3d	; 61
     6d6:	de b7       	in	r29, 0x3e	; 62
     6d8:	2b 97       	sbiw	r28, 0x0b	; 11
     6da:	0f b6       	in	r0, 0x3f	; 63
     6dc:	f8 94       	cli
     6de:	de bf       	out	0x3e, r29	; 62
     6e0:	0f be       	out	0x3f, r0	; 63
     6e2:	cd bf       	out	0x3d, r28	; 61
     6e4:	ff 24       	eor	r15, r15
     6e6:	f3 94       	inc	r15
     6e8:	00 e5       	ldi	r16, 0x50	; 80
     6ea:	10 e0       	ldi	r17, 0x00	; 0
     6ec:	fb 82       	std	Y+3, r15	; 0x03
     6ee:	1a 83       	std	Y+2, r17	; 0x02
     6f0:	09 83       	std	Y+1, r16	; 0x01
     6f2:	fc 82       	std	Y+4, r15	; 0x04
     6f4:	ce 01       	movw	r24, r28
     6f6:	01 96       	adiw	r24, 0x01	; 1
     6f8:	29 de       	rcall	.-942    	; 0x34c <CAN_send_message>
     6fa:	f8 cf       	rjmp	.-16     	; 0x6ec <MENU_wireless_mode+0x1c>

000006fc <MENU_print_highscores>:
     6fc:	1f 93       	push	r17
     6fe:	cf 93       	push	r28
     700:	df 93       	push	r29
     702:	8a e0       	ldi	r24, 0x0A	; 10
     704:	f1 de       	rcall	.-542    	; 0x4e8 <EEPROM_read>
     706:	80 93 3a 02 	sts	0x023A, r24
     70a:	8e e1       	ldi	r24, 0x1E	; 30
     70c:	ed de       	rcall	.-550    	; 0x4e8 <EEPROM_read>
     70e:	80 93 3b 02 	sts	0x023B, r24
     712:	82 e3       	ldi	r24, 0x32	; 50
     714:	e9 de       	rcall	.-558    	; 0x4e8 <EEPROM_read>
     716:	80 93 3c 02 	sts	0x023C, r24
     71a:	f4 d3       	rcall	.+2024   	; 0xf04 <OLED_clear_display>
     71c:	80 e6       	ldi	r24, 0x60	; 96
     71e:	91 e0       	ldi	r25, 0x01	; 1
     720:	93 d4       	rcall	.+2342   	; 0x1048 <OLED_print_header>
     722:	81 e0       	ldi	r24, 0x01	; 1
     724:	e4 d3       	rcall	.+1992   	; 0xeee <OLED_goto_line>
     726:	ca e3       	ldi	r28, 0x3A	; 58
     728:	d2 e0       	ldi	r29, 0x02	; 2
     72a:	11 e0       	ldi	r17, 0x01	; 1
     72c:	89 91       	ld	r24, Y+
     72e:	90 e0       	ldi	r25, 0x00	; 0
     730:	c8 d4       	rcall	.+2448   	; 0x10c2 <OLED_int_to_string>
     732:	55 d4       	rcall	.+2218   	; 0xfde <OLED_print_string>
     734:	1f 5f       	subi	r17, 0xFF	; 255
     736:	81 2f       	mov	r24, r17
     738:	da d3       	rcall	.+1972   	; 0xeee <OLED_goto_line>
     73a:	14 30       	cpi	r17, 0x04	; 4
     73c:	b9 f7       	brne	.-18     	; 0x72c <MENU_print_highscores+0x30>
     73e:	19 df       	rcall	.-462    	; 0x572 <JOY_getDirection>
     740:	81 11       	cpse	r24, r1
     742:	fd cf       	rjmp	.-6      	; 0x73e <MENU_print_highscores+0x42>
     744:	df 91       	pop	r29
     746:	cf 91       	pop	r28
     748:	1f 91       	pop	r17
     74a:	08 95       	ret

0000074c <MENU_add_submenu>:
     74c:	cf 92       	push	r12
     74e:	df 92       	push	r13
     750:	ef 92       	push	r14
     752:	ff 92       	push	r15
     754:	0f 93       	push	r16
     756:	1f 93       	push	r17
     758:	cf 93       	push	r28
     75a:	df 93       	push	r29
     75c:	7c 01       	movw	r14, r24
     75e:	8b 01       	movw	r16, r22
     760:	ea 01       	movw	r28, r20
     762:	cc 80       	ldd	r12, Y+4	; 0x04
     764:	d1 2c       	mov	r13, r1
     766:	cc 0c       	add	r12, r12
     768:	dd 1c       	adc	r13, r13
     76a:	8d 81       	ldd	r24, Y+5	; 0x05
     76c:	9e 81       	ldd	r25, Y+6	; 0x06
     76e:	c8 0e       	add	r12, r24
     770:	d9 1e       	adc	r13, r25
     772:	84 e2       	ldi	r24, 0x24	; 36
     774:	90 e0       	ldi	r25, 0x00	; 0
     776:	0e 94 20 0c 	call	0x1840	; 0x1840 <malloc>
     77a:	f6 01       	movw	r30, r12
     77c:	91 83       	std	Z+1, r25	; 0x01
     77e:	80 83       	st	Z, r24
     780:	ec 81       	ldd	r30, Y+4	; 0x04
     782:	f0 e0       	ldi	r31, 0x00	; 0
     784:	ee 0f       	add	r30, r30
     786:	ff 1f       	adc	r31, r31
     788:	8d 81       	ldd	r24, Y+5	; 0x05
     78a:	9e 81       	ldd	r25, Y+6	; 0x06
     78c:	e8 0f       	add	r30, r24
     78e:	f9 1f       	adc	r31, r25
     790:	01 90       	ld	r0, Z+
     792:	f0 81       	ld	r31, Z
     794:	e0 2d       	mov	r30, r0
     796:	f1 82       	std	Z+1, r15	; 0x01
     798:	e0 82       	st	Z, r14
     79a:	ec 81       	ldd	r30, Y+4	; 0x04
     79c:	f0 e0       	ldi	r31, 0x00	; 0
     79e:	ee 0f       	add	r30, r30
     7a0:	ff 1f       	adc	r31, r31
     7a2:	8d 81       	ldd	r24, Y+5	; 0x05
     7a4:	9e 81       	ldd	r25, Y+6	; 0x06
     7a6:	e8 0f       	add	r30, r24
     7a8:	f9 1f       	adc	r31, r25
     7aa:	01 90       	ld	r0, Z+
     7ac:	f0 81       	ld	r31, Z
     7ae:	e0 2d       	mov	r30, r0
     7b0:	14 82       	std	Z+4, r1	; 0x04
     7b2:	ec 81       	ldd	r30, Y+4	; 0x04
     7b4:	f0 e0       	ldi	r31, 0x00	; 0
     7b6:	ee 0f       	add	r30, r30
     7b8:	ff 1f       	adc	r31, r31
     7ba:	8d 81       	ldd	r24, Y+5	; 0x05
     7bc:	9e 81       	ldd	r25, Y+6	; 0x06
     7be:	e8 0f       	add	r30, r24
     7c0:	f9 1f       	adc	r31, r25
     7c2:	01 90       	ld	r0, Z+
     7c4:	f0 81       	ld	r31, Z
     7c6:	e0 2d       	mov	r30, r0
     7c8:	13 83       	std	Z+3, r17	; 0x03
     7ca:	02 83       	std	Z+2, r16	; 0x02
     7cc:	ec 81       	ldd	r30, Y+4	; 0x04
     7ce:	f0 e0       	ldi	r31, 0x00	; 0
     7d0:	ee 0f       	add	r30, r30
     7d2:	ff 1f       	adc	r31, r31
     7d4:	8d 81       	ldd	r24, Y+5	; 0x05
     7d6:	9e 81       	ldd	r25, Y+6	; 0x06
     7d8:	e8 0f       	add	r30, r24
     7da:	f9 1f       	adc	r31, r25
     7dc:	01 90       	ld	r0, Z+
     7de:	f0 81       	ld	r31, Z
     7e0:	e0 2d       	mov	r30, r0
     7e2:	d0 87       	std	Z+8, r29	; 0x08
     7e4:	c7 83       	std	Z+7, r28	; 0x07
     7e6:	ec 81       	ldd	r30, Y+4	; 0x04
     7e8:	f0 e0       	ldi	r31, 0x00	; 0
     7ea:	ee 0f       	add	r30, r30
     7ec:	ff 1f       	adc	r31, r31
     7ee:	8d 81       	ldd	r24, Y+5	; 0x05
     7f0:	9e 81       	ldd	r25, Y+6	; 0x06
     7f2:	e8 0f       	add	r30, r24
     7f4:	f9 1f       	adc	r31, r25
     7f6:	00 81       	ld	r16, Z
     7f8:	11 81       	ldd	r17, Z+1	; 0x01
     7fa:	84 e2       	ldi	r24, 0x24	; 36
     7fc:	90 e0       	ldi	r25, 0x00	; 0
     7fe:	0e 94 20 0c 	call	0x1840	; 0x1840 <malloc>
     802:	f8 01       	movw	r30, r16
     804:	96 83       	std	Z+6, r25	; 0x06
     806:	85 83       	std	Z+5, r24	; 0x05
     808:	ec 81       	ldd	r30, Y+4	; 0x04
     80a:	ef 5f       	subi	r30, 0xFF	; 255
     80c:	ec 83       	std	Y+4, r30	; 0x04
     80e:	f0 e0       	ldi	r31, 0x00	; 0
     810:	e1 50       	subi	r30, 0x01	; 1
     812:	f0 48       	sbci	r31, 0x80	; 128
     814:	ee 0f       	add	r30, r30
     816:	ff 1f       	adc	r31, r31
     818:	8d 81       	ldd	r24, Y+5	; 0x05
     81a:	9e 81       	ldd	r25, Y+6	; 0x06
     81c:	e8 0f       	add	r30, r24
     81e:	f9 1f       	adc	r31, r25
     820:	80 81       	ld	r24, Z
     822:	91 81       	ldd	r25, Z+1	; 0x01
     824:	df 91       	pop	r29
     826:	cf 91       	pop	r28
     828:	1f 91       	pop	r17
     82a:	0f 91       	pop	r16
     82c:	ff 90       	pop	r15
     82e:	ef 90       	pop	r14
     830:	df 90       	pop	r13
     832:	cf 90       	pop	r12
     834:	08 95       	ret

00000836 <MENU_back>:
     836:	ef 92       	push	r14
     838:	0f 93       	push	r16
     83a:	1f 93       	push	r17
     83c:	cf 93       	push	r28
     83e:	df 93       	push	r29
     840:	cd b7       	in	r28, 0x3d	; 61
     842:	de b7       	in	r29, 0x3e	; 62
     844:	29 97       	sbiw	r28, 0x09	; 9
     846:	0f b6       	in	r0, 0x3f	; 63
     848:	f8 94       	cli
     84a:	de bf       	out	0x3e, r29	; 62
     84c:	0f be       	out	0x3f, r0	; 63
     84e:	cd bf       	out	0x3d, r28	; 61
     850:	09 83       	std	Y+1, r16	; 0x01
     852:	1a 83       	std	Y+2, r17	; 0x02
     854:	2b 83       	std	Y+3, r18	; 0x03
     856:	3c 83       	std	Y+4, r19	; 0x04
     858:	4d 83       	std	Y+5, r20	; 0x05
     85a:	5e 83       	std	Y+6, r21	; 0x06
     85c:	6f 83       	std	Y+7, r22	; 0x07
     85e:	78 87       	std	Y+8, r23	; 0x08
     860:	89 87       	std	Y+9, r24	; 0x09
     862:	e8 85       	ldd	r30, Y+8	; 0x08
     864:	f9 85       	ldd	r31, Y+9	; 0x09
     866:	30 97       	sbiw	r30, 0x00	; 0
     868:	59 f0       	breq	.+22     	; 0x880 <MENU_back+0x4a>
     86a:	e1 2c       	mov	r14, r1
     86c:	00 81       	ld	r16, Z
     86e:	11 81       	ldd	r17, Z+1	; 0x01
     870:	22 81       	ldd	r18, Z+2	; 0x02
     872:	33 81       	ldd	r19, Z+3	; 0x03
     874:	44 81       	ldd	r20, Z+4	; 0x04
     876:	55 81       	ldd	r21, Z+5	; 0x05
     878:	66 81       	ldd	r22, Z+6	; 0x06
     87a:	77 81       	ldd	r23, Z+7	; 0x07
     87c:	80 85       	ldd	r24, Z+8	; 0x08
     87e:	0c d0       	rcall	.+24     	; 0x898 <MENU_display_menu>
     880:	29 96       	adiw	r28, 0x09	; 9
     882:	0f b6       	in	r0, 0x3f	; 63
     884:	f8 94       	cli
     886:	de bf       	out	0x3e, r29	; 62
     888:	0f be       	out	0x3f, r0	; 63
     88a:	cd bf       	out	0x3d, r28	; 61
     88c:	df 91       	pop	r29
     88e:	cf 91       	pop	r28
     890:	1f 91       	pop	r17
     892:	0f 91       	pop	r16
     894:	ef 90       	pop	r14
     896:	08 95       	ret

00000898 <MENU_display_menu>:
     898:	bf 92       	push	r11
     89a:	cf 92       	push	r12
     89c:	df 92       	push	r13
     89e:	ef 92       	push	r14
     8a0:	ff 92       	push	r15
     8a2:	0f 93       	push	r16
     8a4:	1f 93       	push	r17
     8a6:	cf 93       	push	r28
     8a8:	df 93       	push	r29
     8aa:	cd b7       	in	r28, 0x3d	; 61
     8ac:	de b7       	in	r29, 0x3e	; 62
     8ae:	29 97       	sbiw	r28, 0x09	; 9
     8b0:	0f b6       	in	r0, 0x3f	; 63
     8b2:	f8 94       	cli
     8b4:	de bf       	out	0x3e, r29	; 62
     8b6:	0f be       	out	0x3f, r0	; 63
     8b8:	cd bf       	out	0x3d, r28	; 61
     8ba:	09 83       	std	Y+1, r16	; 0x01
     8bc:	1a 83       	std	Y+2, r17	; 0x02
     8be:	2b 83       	std	Y+3, r18	; 0x03
     8c0:	3c 83       	std	Y+4, r19	; 0x04
     8c2:	f4 2e       	mov	r15, r20
     8c4:	4d 83       	std	Y+5, r20	; 0x05
     8c6:	5e 83       	std	Y+6, r21	; 0x06
     8c8:	6f 83       	std	Y+7, r22	; 0x07
     8ca:	78 87       	std	Y+8, r23	; 0x08
     8cc:	89 87       	std	Y+9, r24	; 0x09
     8ce:	0e 81       	ldd	r16, Y+6	; 0x06
     8d0:	1f 81       	ldd	r17, Y+7	; 0x07
     8d2:	8b 81       	ldd	r24, Y+3	; 0x03
     8d4:	9c 81       	ldd	r25, Y+4	; 0x04
     8d6:	89 2b       	or	r24, r25
     8d8:	99 f0       	breq	.+38     	; 0x900 <MENU_display_menu+0x68>
     8da:	e8 85       	ldd	r30, Y+8	; 0x08
     8dc:	f9 85       	ldd	r31, Y+9	; 0x09
     8de:	89 e0       	ldi	r24, 0x09	; 9
     8e0:	ae e3       	ldi	r26, 0x3E	; 62
     8e2:	b2 e0       	ldi	r27, 0x02	; 2
     8e4:	01 90       	ld	r0, Z+
     8e6:	0d 92       	st	X+, r0
     8e8:	8a 95       	dec	r24
     8ea:	e1 f7       	brne	.-8      	; 0x8e4 <MENU_display_menu+0x4c>
     8ec:	09 81       	ldd	r16, Y+1	; 0x01
     8ee:	1a 81       	ldd	r17, Y+2	; 0x02
     8f0:	2b 81       	ldd	r18, Y+3	; 0x03
     8f2:	3c 81       	ldd	r19, Y+4	; 0x04
     8f4:	5e 81       	ldd	r21, Y+6	; 0x06
     8f6:	6f 81       	ldd	r22, Y+7	; 0x07
     8f8:	78 85       	ldd	r23, Y+8	; 0x08
     8fa:	89 85       	ldd	r24, Y+9	; 0x09
     8fc:	9c df       	rcall	.-200    	; 0x836 <MENU_back>
     8fe:	26 c0       	rjmp	.+76     	; 0x94c <MENU_display_menu+0xb4>
     900:	01 d3       	rcall	.+1538   	; 0xf04 <OLED_clear_display>
     902:	89 81       	ldd	r24, Y+1	; 0x01
     904:	9a 81       	ldd	r25, Y+2	; 0x02
     906:	a0 d3       	rcall	.+1856   	; 0x1048 <OLED_print_header>
     908:	81 e0       	ldi	r24, 0x01	; 1
     90a:	f1 d2       	rcall	.+1506   	; 0xeee <OLED_goto_line>
     90c:	ff 20       	and	r15, r15
     90e:	f1 f0       	breq	.+60     	; 0x94c <MENU_display_menu+0xb4>
     910:	ce 2c       	mov	r12, r14
     912:	d1 2c       	mov	r13, r1
     914:	cc 0c       	add	r12, r12
     916:	dd 1c       	adc	r13, r13
     918:	c0 0e       	add	r12, r16
     91a:	d1 1e       	adc	r13, r17
     91c:	b1 2c       	mov	r11, r1
     91e:	be 10       	cpse	r11, r14
     920:	07 c0       	rjmp	.+14     	; 0x930 <MENU_display_menu+0x98>
     922:	d6 01       	movw	r26, r12
     924:	ed 91       	ld	r30, X+
     926:	fc 91       	ld	r31, X
     928:	80 81       	ld	r24, Z
     92a:	91 81       	ldd	r25, Z+1	; 0x01
     92c:	0a d4       	rcall	.+2068   	; 0x1142 <OLED_print_inverted_string>
     92e:	06 c0       	rjmp	.+12     	; 0x93c <MENU_display_menu+0xa4>
     930:	d8 01       	movw	r26, r16
     932:	ed 91       	ld	r30, X+
     934:	fc 91       	ld	r31, X
     936:	80 81       	ld	r24, Z
     938:	91 81       	ldd	r25, Z+1	; 0x01
     93a:	51 d3       	rcall	.+1698   	; 0xfde <OLED_print_string>
     93c:	82 e0       	ldi	r24, 0x02	; 2
     93e:	8b 0d       	add	r24, r11
     940:	d6 d2       	rcall	.+1452   	; 0xeee <OLED_goto_line>
     942:	b3 94       	inc	r11
     944:	0e 5f       	subi	r16, 0xFE	; 254
     946:	1f 4f       	sbci	r17, 0xFF	; 255
     948:	bf 10       	cpse	r11, r15
     94a:	e9 cf       	rjmp	.-46     	; 0x91e <MENU_display_menu+0x86>
     94c:	29 96       	adiw	r28, 0x09	; 9
     94e:	0f b6       	in	r0, 0x3f	; 63
     950:	f8 94       	cli
     952:	de bf       	out	0x3e, r29	; 62
     954:	0f be       	out	0x3f, r0	; 63
     956:	cd bf       	out	0x3d, r28	; 61
     958:	df 91       	pop	r29
     95a:	cf 91       	pop	r28
     95c:	1f 91       	pop	r17
     95e:	0f 91       	pop	r16
     960:	ff 90       	pop	r15
     962:	ef 90       	pop	r14
     964:	df 90       	pop	r13
     966:	cf 90       	pop	r12
     968:	bf 90       	pop	r11
     96a:	08 95       	ret

0000096c <MENU_choose>:
     96c:	ef 92       	push	r14
     96e:	0f 93       	push	r16
     970:	1f 93       	push	r17
     972:	cf 93       	push	r28
     974:	df 93       	push	r29
     976:	cd b7       	in	r28, 0x3d	; 61
     978:	de b7       	in	r29, 0x3e	; 62
     97a:	29 97       	sbiw	r28, 0x09	; 9
     97c:	0f b6       	in	r0, 0x3f	; 63
     97e:	f8 94       	cli
     980:	de bf       	out	0x3e, r29	; 62
     982:	0f be       	out	0x3f, r0	; 63
     984:	cd bf       	out	0x3d, r28	; 61
     986:	09 83       	std	Y+1, r16	; 0x01
     988:	1a 83       	std	Y+2, r17	; 0x02
     98a:	2b 83       	std	Y+3, r18	; 0x03
     98c:	3c 83       	std	Y+4, r19	; 0x04
     98e:	4d 83       	std	Y+5, r20	; 0x05
     990:	5e 83       	std	Y+6, r21	; 0x06
     992:	6f 83       	std	Y+7, r22	; 0x07
     994:	78 87       	std	Y+8, r23	; 0x08
     996:	89 87       	std	Y+9, r24	; 0x09
     998:	0b 81       	ldd	r16, Y+3	; 0x03
     99a:	1c 81       	ldd	r17, Y+4	; 0x04
     99c:	2f ef       	ldi	r18, 0xFF	; 255
     99e:	8f e7       	ldi	r24, 0x7F	; 127
     9a0:	97 e0       	ldi	r25, 0x07	; 7
     9a2:	21 50       	subi	r18, 0x01	; 1
     9a4:	80 40       	sbci	r24, 0x00	; 0
     9a6:	90 40       	sbci	r25, 0x00	; 0
     9a8:	e1 f7       	brne	.-8      	; 0x9a2 <MENU_choose+0x36>
     9aa:	00 c0       	rjmp	.+0      	; 0x9ac <MENU_choose+0x40>
     9ac:	00 00       	nop
     9ae:	01 15       	cp	r16, r1
     9b0:	11 05       	cpc	r17, r1
     9b2:	91 f4       	brne	.+36     	; 0x9d8 <MENU_choose+0x6c>
     9b4:	ee 81       	ldd	r30, Y+6	; 0x06
     9b6:	ff 81       	ldd	r31, Y+7	; 0x07
     9b8:	80 81       	ld	r24, Z
     9ba:	91 81       	ldd	r25, Z+1	; 0x01
     9bc:	89 2b       	or	r24, r25
     9be:	79 f0       	breq	.+30     	; 0x9de <MENU_choose+0x72>
     9c0:	e1 2c       	mov	r14, r1
     9c2:	09 81       	ldd	r16, Y+1	; 0x01
     9c4:	1a 81       	ldd	r17, Y+2	; 0x02
     9c6:	2b 81       	ldd	r18, Y+3	; 0x03
     9c8:	3c 81       	ldd	r19, Y+4	; 0x04
     9ca:	4d 81       	ldd	r20, Y+5	; 0x05
     9cc:	5e 81       	ldd	r21, Y+6	; 0x06
     9ce:	6f 81       	ldd	r22, Y+7	; 0x07
     9d0:	78 85       	ldd	r23, Y+8	; 0x08
     9d2:	89 85       	ldd	r24, Y+9	; 0x09
     9d4:	61 df       	rcall	.-318    	; 0x898 <MENU_display_menu>
     9d6:	03 c0       	rjmp	.+6      	; 0x9de <MENU_choose+0x72>
     9d8:	95 d2       	rcall	.+1322   	; 0xf04 <OLED_clear_display>
     9da:	f8 01       	movw	r30, r16
     9dc:	09 95       	icall
     9de:	29 96       	adiw	r28, 0x09	; 9
     9e0:	0f b6       	in	r0, 0x3f	; 63
     9e2:	f8 94       	cli
     9e4:	de bf       	out	0x3e, r29	; 62
     9e6:	0f be       	out	0x3f, r0	; 63
     9e8:	cd bf       	out	0x3d, r28	; 61
     9ea:	df 91       	pop	r29
     9ec:	cf 91       	pop	r28
     9ee:	1f 91       	pop	r17
     9f0:	0f 91       	pop	r16
     9f2:	ef 90       	pop	r14
     9f4:	08 95       	ret

000009f6 <MENU_update_highscores>:
	while(JOY_getDirection()!=left){ 
	}
}

//Returns the position where you are on the higscore board and writes to the EEPROM if you have made top three
uint8_t MENU_update_highscores(uint8_t time) { 
     9f6:	1f 93       	push	r17
     9f8:	cf 93       	push	r28
     9fa:	df 93       	push	r29
     9fc:	c8 2f       	mov	r28, r24
	
	uint8_t highscore_1 = EEPROM_read(HIGHSCORE_1_ADDRESS);
     9fe:	8a e0       	ldi	r24, 0x0A	; 10
     a00:	73 dd       	rcall	.-1306   	; 0x4e8 <EEPROM_read>
     a02:	d8 2f       	mov	r29, r24
	uint8_t highscore_2 = EEPROM_read(HIGHSCORE_2_ADDRESS);
     a04:	8e e1       	ldi	r24, 0x1E	; 30
     a06:	70 dd       	rcall	.-1312   	; 0x4e8 <EEPROM_read>
     a08:	18 2f       	mov	r17, r24
	uint8_t highscore_3 = EEPROM_read(HIGHSCORE_3_ADDRESS);
     a0a:	82 e3       	ldi	r24, 0x32	; 50
     a0c:	6d dd       	rcall	.-1318   	; 0x4e8 <EEPROM_read>
		
		if (time > highscore_1){
     a0e:	dc 17       	cp	r29, r28
     a10:	28 f4       	brcc	.+10     	; 0xa1c <MENU_update_highscores+0x26>
			EEPROM_write(HIGHSCORE_1_ADDRESS,time);
     a12:	6c 2f       	mov	r22, r28
     a14:	8a e0       	ldi	r24, 0x0A	; 10
     a16:	5f dd       	rcall	.-1346   	; 0x4d6 <EEPROM_write>
			return 1;
     a18:	81 e0       	ldi	r24, 0x01	; 1
     a1a:	0f c0       	rjmp	.+30     	; 0xa3a <MENU_update_highscores+0x44>
		}
		else if(time > highscore_2){
     a1c:	1c 17       	cp	r17, r28
     a1e:	28 f4       	brcc	.+10     	; 0xa2a <MENU_update_highscores+0x34>
			EEPROM_write(HIGHSCORE_2_ADDRESS,time);
     a20:	6c 2f       	mov	r22, r28
     a22:	8e e1       	ldi	r24, 0x1E	; 30
     a24:	58 dd       	rcall	.-1360   	; 0x4d6 <EEPROM_write>
			return 2;
     a26:	82 e0       	ldi	r24, 0x02	; 2
     a28:	08 c0       	rjmp	.+16     	; 0xa3a <MENU_update_highscores+0x44>
		}
		else if(time > highscore_3){
     a2a:	8c 17       	cp	r24, r28
     a2c:	28 f4       	brcc	.+10     	; 0xa38 <MENU_update_highscores+0x42>
			EEPROM_write(HIGHSCORE_3_ADDRESS,time);
     a2e:	6c 2f       	mov	r22, r28
     a30:	82 e3       	ldi	r24, 0x32	; 50
     a32:	51 dd       	rcall	.-1374   	; 0x4d6 <EEPROM_write>
			return 3;
     a34:	83 e0       	ldi	r24, 0x03	; 3
     a36:	01 c0       	rjmp	.+2      	; 0xa3a <MENU_update_highscores+0x44>
		}
		return 0;
     a38:	80 e0       	ldi	r24, 0x00	; 0
		
}
     a3a:	df 91       	pop	r29
     a3c:	cf 91       	pop	r28
     a3e:	1f 91       	pop	r17
     a40:	08 95       	ret

00000a42 <MENU_play_game>:
	}
	
}

//function for playing the game with the P1000 multifunction board
void MENU_play_game(void){
     a42:	df 92       	push	r13
     a44:	ef 92       	push	r14
     a46:	ff 92       	push	r15
     a48:	0f 93       	push	r16
     a4a:	1f 93       	push	r17
     a4c:	cf 93       	push	r28
     a4e:	df 93       	push	r29
     a50:	cd b7       	in	r28, 0x3d	; 61
     a52:	de b7       	in	r29, 0x3e	; 62
     a54:	66 97       	sbiw	r28, 0x16	; 22
     a56:	0f b6       	in	r0, 0x3f	; 63
     a58:	f8 94       	cli
     a5a:	de bf       	out	0x3e, r29	; 62
     a5c:	0f be       	out	0x3f, r0	; 63
     a5e:	cd bf       	out	0x3d, r28	; 61
	can_message_t receive_msg;	
	
	
	//initializing the message containing the controls
	can_message_t msg;
	msg.id = GAME_ID;
     a60:	84 e6       	ldi	r24, 0x64	; 100
     a62:	90 e0       	ldi	r25, 0x00	; 0
     a64:	9d 87       	std	Y+13, r25	; 0x0d
     a66:	8c 87       	std	Y+12, r24	; 0x0c
	msg.length = 7;
     a68:	87 e0       	ldi	r24, 0x07	; 7
     a6a:	8e 87       	std	Y+14, r24	; 0x0e
	
	
	uint8_t gameover = FALSE;
	
	//starting the higscore timer
	TIMER_start();
     a6c:	f0 d3       	rcall	.+2016   	; 0x124e <TIMER_start>
		msg.data[1] = ADC_read(joyY);
		msg.data[2] = ADC_read(right_slider);
		msg.data[3] = PINB & RIGHT_BUTTON;
		msg.data[4] = PINB & LEFT_BUTTON;
		msg.data[5] = PINB & JOY_BUTTON;
		msg.data[7] = gameover ? 0:1;
     a6e:	dd 24       	eor	r13, r13
     a70:	d3 94       	inc	r13
	
	//running until the IR is triggered
	while(!gameover){
		
		
		msg.data[0] = ADC_read(joyX);
     a72:	85 e0       	ldi	r24, 0x05	; 5
     a74:	47 dc       	rcall	.-1906   	; 0x304 <ADC_read>
     a76:	8f 87       	std	Y+15, r24	; 0x0f
		msg.data[1] = ADC_read(joyY);
     a78:	84 e0       	ldi	r24, 0x04	; 4
     a7a:	44 dc       	rcall	.-1912   	; 0x304 <ADC_read>
     a7c:	88 8b       	std	Y+16, r24	; 0x10
		msg.data[2] = ADC_read(right_slider);
     a7e:	86 e0       	ldi	r24, 0x06	; 6
     a80:	41 dc       	rcall	.-1918   	; 0x304 <ADC_read>
     a82:	38 2f       	mov	r19, r24
     a84:	89 8b       	std	Y+17, r24	; 0x11
		msg.data[3] = PINB & RIGHT_BUTTON;
     a86:	46 b3       	in	r20, 0x16	; 22
     a88:	41 70       	andi	r20, 0x01	; 1
     a8a:	4a 8b       	std	Y+18, r20	; 0x12
		msg.data[4] = PINB & LEFT_BUTTON;
     a8c:	56 b3       	in	r21, 0x16	; 22
     a8e:	52 70       	andi	r21, 0x02	; 2
     a90:	5b 8b       	std	Y+19, r21	; 0x13
		msg.data[5] = PINB & JOY_BUTTON;
     a92:	66 b3       	in	r22, 0x16	; 22
     a94:	64 70       	andi	r22, 0x04	; 4
     a96:	6c 8b       	std	Y+20, r22	; 0x14
		msg.data[7] = gameover ? 0:1;
     a98:	de 8a       	std	Y+22, r13	; 0x16
		
		CAN_print_message(msg);
     a9a:	ec 84       	ldd	r14, Y+12	; 0x0c
     a9c:	fd 84       	ldd	r15, Y+13	; 0x0d
     a9e:	0e 85       	ldd	r16, Y+14	; 0x0e
     aa0:	1f 85       	ldd	r17, Y+15	; 0x0f
     aa2:	28 89       	ldd	r18, Y+16	; 0x10
     aa4:	7d 89       	ldd	r23, Y+21	; 0x15
     aa6:	8d 2d       	mov	r24, r13
     aa8:	bc dc       	rcall	.-1672   	; 0x422 <CAN_print_message>
		printf("\n\n");
     aaa:	89 e2       	ldi	r24, 0x29	; 41
     aac:	92 e0       	ldi	r25, 0x02	; 2
     aae:	0e 94 c5 0d 	call	0x1b8a	; 0x1b8a <puts>
		
		CAN_send_message(&msg);
     ab2:	ce 01       	movw	r24, r28
     ab4:	0c 96       	adiw	r24, 0x0c	; 12
     ab6:	4a dc       	rcall	.-1900   	; 0x34c <CAN_send_message>
	
		
		//Recieving an eventual message saying the IR is triggered
		CAN_recieve_data(&receive_msg);
     ab8:	ce 01       	movw	r24, r28
     aba:	01 96       	adiw	r24, 0x01	; 1
     abc:	77 dc       	rcall	.-1810   	; 0x3ac <CAN_recieve_data>
		
		CAN_print_message(receive_msg);
     abe:	e9 80       	ldd	r14, Y+1	; 0x01
     ac0:	fa 80       	ldd	r15, Y+2	; 0x02
     ac2:	0b 81       	ldd	r16, Y+3	; 0x03
     ac4:	1c 81       	ldd	r17, Y+4	; 0x04
     ac6:	2d 81       	ldd	r18, Y+5	; 0x05
     ac8:	3e 81       	ldd	r19, Y+6	; 0x06
     aca:	4f 81       	ldd	r20, Y+7	; 0x07
     acc:	58 85       	ldd	r21, Y+8	; 0x08
     ace:	69 85       	ldd	r22, Y+9	; 0x09
     ad0:	7a 85       	ldd	r23, Y+10	; 0x0a
     ad2:	8b 85       	ldd	r24, Y+11	; 0x0b
     ad4:	a6 dc       	rcall	.-1716   	; 0x422 <CAN_print_message>
		
		if (receive_msg.id == GAMEOVER_DATA_ID) {
     ad6:	29 81       	ldd	r18, Y+1	; 0x01
     ad8:	3a 81       	ldd	r19, Y+2	; 0x02
     ada:	2a 35       	cpi	r18, 0x5A	; 90
     adc:	31 05       	cpc	r19, r1
     ade:	49 f6       	brne	.-110    	; 0xa72 <MENU_play_game+0x30>
	
			gameover = TRUE;
			//stops the highscore timer
			TIMER_stop();
     ae0:	c0 d3       	rcall	.+1920   	; 0x1262 <TIMER_stop>
			
			uint8_t rank = MENU_update_highscores(TIMER_get_time());
     ae2:	c3 d3       	rcall	.+1926   	; 0x126a <TIMER_get_time>
     ae4:	88 df       	rcall	.-240    	; 0x9f6 <MENU_update_highscores>
     ae6:	d8 2e       	mov	r13, r24
			uint8_t time = TIMER_get_time();
     ae8:	c0 d3       	rcall	.+1920   	; 0x126a <TIMER_get_time>
     aea:	8c 01       	movw	r16, r24
			OLED_clear_display();
     aec:	0b d2       	rcall	.+1046   	; 0xf04 <OLED_clear_display>
			OLED_print_string("GAME OVER");
     aee:	8f e6       	ldi	r24, 0x6F	; 111
     af0:	91 e0       	ldi	r25, 0x01	; 1
     af2:	75 d2       	rcall	.+1258   	; 0xfde <OLED_print_string>
			OLED_goto_line(3);
     af4:	83 e0       	ldi	r24, 0x03	; 3
     af6:	fb d1       	rcall	.+1014   	; 0xeee <OLED_goto_line>
			OLED_print_string("Your score:");
     af8:	89 e7       	ldi	r24, 0x79	; 121
     afa:	91 e0       	ldi	r25, 0x01	; 1
     afc:	70 d2       	rcall	.+1248   	; 0xfde <OLED_print_string>
			OLED_goto_line(4);
     afe:	84 e0       	ldi	r24, 0x04	; 4
     b00:	f6 d1       	rcall	.+1004   	; 0xeee <OLED_goto_line>
			OLED_print_string(OLED_int_to_string(time));
     b02:	c8 01       	movw	r24, r16
     b04:	99 27       	eor	r25, r25
     b06:	dd d2       	rcall	.+1466   	; 0x10c2 <OLED_int_to_string>
     b08:	6a d2       	rcall	.+1236   	; 0xfde <OLED_print_string>
     b0a:	2f ef       	ldi	r18, 0xFF	; 255
     b0c:	8f ef       	ldi	r24, 0xFF	; 255
     b0e:	95 e9       	ldi	r25, 0x95	; 149
     b10:	21 50       	subi	r18, 0x01	; 1
     b12:	80 40       	sbci	r24, 0x00	; 0
     b14:	90 40       	sbci	r25, 0x00	; 0
     b16:	e1 f7       	brne	.-8      	; 0xb10 <MENU_play_game+0xce>
     b18:	00 c0       	rjmp	.+0      	; 0xb1a <MENU_play_game+0xd8>
     b1a:	00 00       	nop
			_delay_ms(10000);
			
			
			
			if (rank) {
     b1c:	dd 20       	and	r13, r13
     b1e:	d9 f0       	breq	.+54     	; 0xb56 <MENU_play_game+0x114>
				OLED_clear_display();
     b20:	f1 d1       	rcall	.+994    	; 0xf04 <OLED_clear_display>
				OLED_print_string("Congratulations!");
     b22:	85 e8       	ldi	r24, 0x85	; 133
     b24:	91 e0       	ldi	r25, 0x01	; 1
     b26:	5b d2       	rcall	.+1206   	; 0xfde <OLED_print_string>
				OLED_goto_line(2);
     b28:	82 e0       	ldi	r24, 0x02	; 2
     b2a:	e1 d1       	rcall	.+962    	; 0xeee <OLED_goto_line>
				OLED_print_string("Your time reached the highscore list.");
     b2c:	86 e9       	ldi	r24, 0x96	; 150
     b2e:	91 e0       	ldi	r25, 0x01	; 1
     b30:	56 d2       	rcall	.+1196   	; 0xfde <OLED_print_string>
				OLED_goto_line(3);
     b32:	83 e0       	ldi	r24, 0x03	; 3
     b34:	dc d1       	rcall	.+952    	; 0xeee <OLED_goto_line>
				OLED_print_string("Current rank:");
     b36:	8c eb       	ldi	r24, 0xBC	; 188
     b38:	91 e0       	ldi	r25, 0x01	; 1
     b3a:	51 d2       	rcall	.+1186   	; 0xfde <OLED_print_string>
				OLED_goto_line(4);
     b3c:	84 e0       	ldi	r24, 0x04	; 4
     b3e:	d7 d1       	rcall	.+942    	; 0xeee <OLED_goto_line>
				OLED_print_char(rank);
     b40:	8d 2d       	mov	r24, r13
     b42:	03 d2       	rcall	.+1030   	; 0xf4a <OLED_print_char>
     b44:	2f ef       	ldi	r18, 0xFF	; 255
     b46:	8f ef       	ldi	r24, 0xFF	; 255
     b48:	9c e2       	ldi	r25, 0x2C	; 44
     b4a:	21 50       	subi	r18, 0x01	; 1
     b4c:	80 40       	sbci	r24, 0x00	; 0
     b4e:	90 40       	sbci	r25, 0x00	; 0
     b50:	e1 f7       	brne	.-8      	; 0xb4a <MENU_play_game+0x108>
     b52:	00 c0       	rjmp	.+0      	; 0xb54 <MENU_play_game+0x112>
     b54:	00 c0       	rjmp	.+0      	; 0xb56 <MENU_play_game+0x114>
			}
		}
		
	}
	
}
     b56:	66 96       	adiw	r28, 0x16	; 22
     b58:	0f b6       	in	r0, 0x3f	; 63
     b5a:	f8 94       	cli
     b5c:	de bf       	out	0x3e, r29	; 62
     b5e:	0f be       	out	0x3f, r0	; 63
     b60:	cd bf       	out	0x3d, r28	; 61
     b62:	df 91       	pop	r29
     b64:	cf 91       	pop	r28
     b66:	1f 91       	pop	r17
     b68:	0f 91       	pop	r16
     b6a:	ff 90       	pop	r15
     b6c:	ef 90       	pop	r14
     b6e:	df 90       	pop	r13
     b70:	08 95       	ret

00000b72 <MENU_create>:
	
	
	
}

void MENU_create(){
     b72:	cf 93       	push	r28
     b74:	df 93       	push	r29

	//Initializing Main Menu
	main_menu.title = "Main Menu";
     b76:	8a ec       	ldi	r24, 0xCA	; 202
     b78:	91 e0       	ldi	r25, 0x01	; 1
     b7a:	90 93 48 02 	sts	0x0248, r25
     b7e:	80 93 47 02 	sts	0x0247, r24
	main_menu.number_of_submenus = 0;
     b82:	10 92 4b 02 	sts	0x024B, r1
	main_menu.item = NULL_PTR;
     b86:	10 92 4a 02 	sts	0x024A, r1
     b8a:	10 92 49 02 	sts	0x0249, r1
	main_menu.parent = NULL_PTR;
     b8e:	10 92 4f 02 	sts	0x024F, r1
     b92:	10 92 4e 02 	sts	0x024E, r1
	main_menu.submenus = malloc(sizeof(menu_t)*4);
     b96:	84 e2       	ldi	r24, 0x24	; 36
     b98:	90 e0       	ldi	r25, 0x00	; 0
     b9a:	52 d6       	rcall	.+3236   	; 0x1840 <malloc>
     b9c:	90 93 4d 02 	sts	0x024D, r25
     ba0:	80 93 4c 02 	sts	0x024C, r24

	
	
	
	//adding submenus and functions
	menu_t* playgame_f = MENU_add_submenu("Play game", &MENU_play_game, &main_menu);
     ba4:	47 e4       	ldi	r20, 0x47	; 71
     ba6:	52 e0       	ldi	r21, 0x02	; 2
     ba8:	61 e2       	ldi	r22, 0x21	; 33
     baa:	75 e0       	ldi	r23, 0x05	; 5
     bac:	84 ed       	ldi	r24, 0xD4	; 212
     bae:	91 e0       	ldi	r25, 0x01	; 1
     bb0:	cd dd       	rcall	.-1126   	; 0x74c <MENU_add_submenu>
	menu_t* highscores_m = MENU_add_submenu("Highscores", &MENU_print_highscores, &main_menu);
     bb2:	47 e4       	ldi	r20, 0x47	; 71
     bb4:	52 e0       	ldi	r21, 0x02	; 2
     bb6:	6e e7       	ldi	r22, 0x7E	; 126
     bb8:	73 e0       	ldi	r23, 0x03	; 3
     bba:	8e ed       	ldi	r24, 0xDE	; 222
     bbc:	91 e0       	ldi	r25, 0x01	; 1
     bbe:	c6 dd       	rcall	.-1140   	; 0x74c <MENU_add_submenu>
	menu_t* settings_m = MENU_add_submenu("Settings", NULL_PTR, &main_menu);
     bc0:	47 e4       	ldi	r20, 0x47	; 71
     bc2:	52 e0       	ldi	r21, 0x02	; 2
     bc4:	60 e0       	ldi	r22, 0x00	; 0
     bc6:	70 e0       	ldi	r23, 0x00	; 0
     bc8:	89 ee       	ldi	r24, 0xE9	; 233
     bca:	91 e0       	ldi	r25, 0x01	; 1
     bcc:	bf dd       	rcall	.-1154   	; 0x74c <MENU_add_submenu>
     bce:	ec 01       	movw	r28, r24
	
	menu_t* scream_mode_f = MENU_add_submenu("Scream Mode", &MENU_scream_mode, settings_m);
     bd0:	ac 01       	movw	r20, r24
     bd2:	62 e6       	ldi	r22, 0x62	; 98
     bd4:	73 e0       	ldi	r23, 0x03	; 3
     bd6:	82 ef       	ldi	r24, 0xF2	; 242
     bd8:	91 e0       	ldi	r25, 0x01	; 1
     bda:	b8 dd       	rcall	.-1168   	; 0x74c <MENU_add_submenu>
	menu_t* normal_mode_f = MENU_add_submenu("Normal Mode", &MENU_normal_mode, settings_m);
     bdc:	ae 01       	movw	r20, r28
     bde:	65 e6       	ldi	r22, 0x65	; 101
     be0:	73 e0       	ldi	r23, 0x03	; 3
     be2:	8e ef       	ldi	r24, 0xFE	; 254
     be4:	91 e0       	ldi	r25, 0x01	; 1
     be6:	b2 dd       	rcall	.-1180   	; 0x74c <MENU_add_submenu>
	menu_t* wireless_mode_f = MENU_add_submenu("Wireless Mode", &MENU_wireless_mode, settings_m);
     be8:	ae 01       	movw	r20, r28
     bea:	68 e6       	ldi	r22, 0x68	; 104
     bec:	73 e0       	ldi	r23, 0x03	; 3
     bee:	8a e0       	ldi	r24, 0x0A	; 10
     bf0:	92 e0       	ldi	r25, 0x02	; 2
     bf2:	ac dd       	rcall	.-1192   	; 0x74c <MENU_add_submenu>
	
	//setting the current menu to be the main menu
	current_menu = main_menu;
     bf4:	89 e0       	ldi	r24, 0x09	; 9
     bf6:	e7 e4       	ldi	r30, 0x47	; 71
     bf8:	f2 e0       	ldi	r31, 0x02	; 2
     bfa:	ae e3       	ldi	r26, 0x3E	; 62
     bfc:	b2 e0       	ldi	r27, 0x02	; 2
     bfe:	01 90       	ld	r0, Z+
     c00:	0d 92       	st	X+, r0
     c02:	8a 95       	dec	r24
     c04:	e1 f7       	brne	.-8      	; 0xbfe <MENU_create+0x8c>
	
	
}
     c06:	df 91       	pop	r29
     c08:	cf 91       	pop	r28
     c0a:	08 95       	ret

00000c0c <MENU_run_menu>:


//function for navigating the menus
void MENU_run_menu(void){
     c0c:	cf 93       	push	r28
     c0e:	df 93       	push	r29
     c10:	cd b7       	in	r28, 0x3d	; 61
     c12:	de b7       	in	r29, 0x3e	; 62
     c14:	29 97       	sbiw	r28, 0x09	; 9
     c16:	0f b6       	in	r0, 0x3f	; 63
     c18:	f8 94       	cli
     c1a:	de bf       	out	0x3e, r29	; 62
     c1c:	0f be       	out	0x3f, r0	; 63
     c1e:	cd bf       	out	0x3d, r28	; 61
	
	MENU_display_menu(main_menu,0);
     c20:	e1 2c       	mov	r14, r1
     c22:	00 91 47 02 	lds	r16, 0x0247
     c26:	10 91 48 02 	lds	r17, 0x0248
     c2a:	20 91 49 02 	lds	r18, 0x0249
     c2e:	30 91 4a 02 	lds	r19, 0x024A
     c32:	40 91 4b 02 	lds	r20, 0x024B
     c36:	50 91 4c 02 	lds	r21, 0x024C
     c3a:	60 91 4d 02 	lds	r22, 0x024D
     c3e:	70 91 4e 02 	lds	r23, 0x024E
     c42:	80 91 4f 02 	lds	r24, 0x024F
     c46:	28 de       	rcall	.-944    	; 0x898 <MENU_display_menu>
			
			JOY_position_t pos = JOY_getPosition();
			
			JOY_direction_t dir = JOY_getDirection();
		
			menu_t choice = *current_menu.submenus[current_line];		
     c48:	0f 2e       	mov	r0, r31
     c4a:	f9 e0       	ldi	r31, 0x09	; 9
     c4c:	ff 2e       	mov	r15, r31
     c4e:	f0 2d       	mov	r31, r0
						last_direction = dir;
						_delay_ms(100);
						break;
					
					case neutral:
						last_direction = dir;
     c50:	68 94       	set
     c52:	44 24       	eor	r4, r4
     c54:	42 f8       	bld	r4, 2
						_delay_ms(100);
						break;
				
					case down:
	
						if ((current_line < (current_menu.number_of_submenus-1)) && last_direction == neutral) {
     c56:	0f 2e       	mov	r0, r31
     c58:	f2 e4       	ldi	r31, 0x42	; 66
     c5a:	cf 2e       	mov	r12, r31
     c5c:	f2 e0       	ldi	r31, 0x02	; 2
     c5e:	df 2e       	mov	r13, r31
     c60:	f0 2d       	mov	r31, r0
							current_line++;
							printf("current line = %d\n", current_line);
						
							MENU_display_menu(current_menu, current_line);
						}
						last_direction = dir;
     c62:	0f 2e       	mov	r0, r31
     c64:	f3 e0       	ldi	r31, 0x03	; 3
     c66:	5f 2e       	mov	r5, r31
     c68:	f0 2d       	mov	r31, r0
				
					case down:
	
						if ((current_line < (current_menu.number_of_submenus-1)) && last_direction == neutral) {
							current_line++;
							printf("current line = %d\n", current_line);
     c6a:	0f 2e       	mov	r0, r31
     c6c:	f8 e1       	ldi	r31, 0x18	; 24
     c6e:	8f 2e       	mov	r8, r31
     c70:	f2 e0       	ldi	r31, 0x02	; 2
     c72:	9f 2e       	mov	r9, r31
     c74:	f0 2d       	mov	r31, r0
							current_menu = choice;
							current_line = 0;
							MENU_display_menu(current_menu, current_line);
						
						}
						last_direction = dir;
     c76:	66 24       	eor	r6, r6
     c78:	63 94       	inc	r6
				
					//enabling going to the previous menu by moving the joystick left
					case left:	
						if(last_direction == neutral){
						MENU_back(current_menu);
							if (current_menu.parent != NULL_PTR) {
     c7a:	0f 2e       	mov	r0, r31
     c7c:	f5 e4       	ldi	r31, 0x45	; 69
     c7e:	af 2e       	mov	r10, r31
     c80:	f2 e0       	ldi	r31, 0x02	; 2
     c82:	bf 2e       	mov	r11, r31
     c84:	f0 2d       	mov	r31, r0
						//ensuring that the user returns the joystick to neutral position before making another choice
						if (current_line > 0 && last_direction == neutral) {
							current_line--;
							MENU_display_menu(current_menu, current_line);
						}
						last_direction = dir;
     c86:	68 94       	set
     c88:	77 24       	eor	r7, r7
     c8a:	71 f8       	bld	r7, 1

//function for navigating the menus
void MENU_run_menu(void){
	
	MENU_display_menu(main_menu,0);
		while(!quit) {
     c8c:	d9 c0       	rjmp	.+434    	; 0xe40 <MENU_run_menu+0x234>
					
					
					case up:
						
						//ensuring that the user returns the joystick to neutral position before making another choice
						if (current_line > 0 && last_direction == neutral) {
     c8e:	44 23       	and	r20, r20
     c90:	e1 f0       	breq	.+56     	; 0xcca <MENU_run_menu+0xbe>
     c92:	80 91 06 01 	lds	r24, 0x0106
     c96:	84 30       	cpi	r24, 0x04	; 4
     c98:	c1 f4       	brne	.+48     	; 0xcca <MENU_run_menu+0xbe>
							current_line--;
     c9a:	ee 24       	eor	r14, r14
     c9c:	ea 94       	dec	r14
     c9e:	e4 0e       	add	r14, r20
     ca0:	e0 92 3d 02 	sts	0x023D, r14
							MENU_display_menu(current_menu, current_line);
     ca4:	00 91 3e 02 	lds	r16, 0x023E
     ca8:	10 91 3f 02 	lds	r17, 0x023F
     cac:	20 91 40 02 	lds	r18, 0x0240
     cb0:	30 91 41 02 	lds	r19, 0x0241
     cb4:	40 91 42 02 	lds	r20, 0x0242
     cb8:	50 91 43 02 	lds	r21, 0x0243
     cbc:	60 91 44 02 	lds	r22, 0x0244
     cc0:	70 91 45 02 	lds	r23, 0x0245
     cc4:	80 91 46 02 	lds	r24, 0x0246
     cc8:	e7 dd       	rcall	.-1074   	; 0x898 <MENU_display_menu>
						}
						last_direction = dir;
     cca:	70 92 06 01 	sts	0x0106, r7
     cce:	2f ef       	ldi	r18, 0xFF	; 255
     cd0:	8f e7       	ldi	r24, 0x7F	; 127
     cd2:	91 e0       	ldi	r25, 0x01	; 1
     cd4:	21 50       	subi	r18, 0x01	; 1
     cd6:	80 40       	sbci	r24, 0x00	; 0
     cd8:	90 40       	sbci	r25, 0x00	; 0
     cda:	e1 f7       	brne	.-8      	; 0xcd4 <MENU_run_menu+0xc8>
     cdc:	00 c0       	rjmp	.+0      	; 0xcde <MENU_run_menu+0xd2>
     cde:	00 c0       	rjmp	.+0      	; 0xce0 <MENU_run_menu+0xd4>
     ce0:	af c0       	rjmp	.+350    	; 0xe40 <MENU_run_menu+0x234>
						_delay_ms(100);
						break;
				
					case down:
	
						if ((current_line < (current_menu.number_of_submenus-1)) && last_direction == neutral) {
     ce2:	24 2f       	mov	r18, r20
     ce4:	30 e0       	ldi	r19, 0x00	; 0
     ce6:	d6 01       	movw	r26, r12
     ce8:	8c 91       	ld	r24, X
     cea:	90 e0       	ldi	r25, 0x00	; 0
     cec:	01 97       	sbiw	r24, 0x01	; 1
     cee:	28 17       	cp	r18, r24
     cf0:	39 07       	cpc	r19, r25
     cf2:	2c f5       	brge	.+74     	; 0xd3e <MENU_run_menu+0x132>
     cf4:	80 91 06 01 	lds	r24, 0x0106
     cf8:	84 30       	cpi	r24, 0x04	; 4
     cfa:	09 f5       	brne	.+66     	; 0xd3e <MENU_run_menu+0x132>
							current_line++;
     cfc:	4f 5f       	subi	r20, 0xFF	; 255
     cfe:	40 93 3d 02 	sts	0x023D, r20
							printf("current line = %d\n", current_line);
     d02:	1f 92       	push	r1
     d04:	4f 93       	push	r20
     d06:	9f 92       	push	r9
     d08:	8f 92       	push	r8
     d0a:	2e d7       	rcall	.+3676   	; 0x1b68 <printf>
						
							MENU_display_menu(current_menu, current_line);
     d0c:	e0 90 3d 02 	lds	r14, 0x023D
     d10:	00 91 3e 02 	lds	r16, 0x023E
     d14:	10 91 3f 02 	lds	r17, 0x023F
     d18:	20 91 40 02 	lds	r18, 0x0240
     d1c:	30 91 41 02 	lds	r19, 0x0241
     d20:	40 91 42 02 	lds	r20, 0x0242
     d24:	50 91 43 02 	lds	r21, 0x0243
     d28:	60 91 44 02 	lds	r22, 0x0244
     d2c:	70 91 45 02 	lds	r23, 0x0245
     d30:	80 91 46 02 	lds	r24, 0x0246
     d34:	b1 dd       	rcall	.-1182   	; 0x898 <MENU_display_menu>
     d36:	0f 90       	pop	r0
     d38:	0f 90       	pop	r0
     d3a:	0f 90       	pop	r0
     d3c:	0f 90       	pop	r0
						}
						last_direction = dir;
     d3e:	50 92 06 01 	sts	0x0106, r5
     d42:	bf ef       	ldi	r27, 0xFF	; 255
     d44:	ef e7       	ldi	r30, 0x7F	; 127
     d46:	f1 e0       	ldi	r31, 0x01	; 1
     d48:	b1 50       	subi	r27, 0x01	; 1
     d4a:	e0 40       	sbci	r30, 0x00	; 0
     d4c:	f0 40       	sbci	r31, 0x00	; 0
     d4e:	e1 f7       	brne	.-8      	; 0xd48 <MENU_run_menu+0x13c>
     d50:	00 c0       	rjmp	.+0      	; 0xd52 <MENU_run_menu+0x146>
     d52:	00 c0       	rjmp	.+0      	; 0xd54 <MENU_run_menu+0x148>
     d54:	75 c0       	rjmp	.+234    	; 0xe40 <MENU_run_menu+0x234>
						_delay_ms(100);
						break;
					
					//enabling a choice to be made by moving the joystick right
					case right:
						if (last_direction == neutral) {
     d56:	80 91 06 01 	lds	r24, 0x0106
     d5a:	84 30       	cpi	r24, 0x04	; 4
     d5c:	49 f5       	brne	.+82     	; 0xdb0 <MENU_run_menu+0x1a4>
							MENU_choose(choice);
     d5e:	09 81       	ldd	r16, Y+1	; 0x01
     d60:	1a 81       	ldd	r17, Y+2	; 0x02
     d62:	2b 81       	ldd	r18, Y+3	; 0x03
     d64:	3c 81       	ldd	r19, Y+4	; 0x04
     d66:	4d 81       	ldd	r20, Y+5	; 0x05
     d68:	5e 81       	ldd	r21, Y+6	; 0x06
     d6a:	6f 81       	ldd	r22, Y+7	; 0x07
     d6c:	78 85       	ldd	r23, Y+8	; 0x08
     d6e:	89 85       	ldd	r24, Y+9	; 0x09
     d70:	fd dd       	rcall	.-1030   	; 0x96c <MENU_choose>
							current_menu = choice;
     d72:	fe 01       	movw	r30, r28
     d74:	31 96       	adiw	r30, 0x01	; 1
     d76:	ae e3       	ldi	r26, 0x3E	; 62
     d78:	b2 e0       	ldi	r27, 0x02	; 2
     d7a:	8f 2d       	mov	r24, r15
     d7c:	01 90       	ld	r0, Z+
     d7e:	0d 92       	st	X+, r0
     d80:	8a 95       	dec	r24
     d82:	e1 f7       	brne	.-8      	; 0xd7c <MENU_run_menu+0x170>
							current_line = 0;
     d84:	10 92 3d 02 	sts	0x023D, r1
							MENU_display_menu(current_menu, current_line);
     d88:	e1 2c       	mov	r14, r1
     d8a:	00 91 3e 02 	lds	r16, 0x023E
     d8e:	10 91 3f 02 	lds	r17, 0x023F
     d92:	20 91 40 02 	lds	r18, 0x0240
     d96:	30 91 41 02 	lds	r19, 0x0241
     d9a:	40 91 42 02 	lds	r20, 0x0242
     d9e:	50 91 43 02 	lds	r21, 0x0243
     da2:	60 91 44 02 	lds	r22, 0x0244
     da6:	70 91 45 02 	lds	r23, 0x0245
     daa:	80 91 46 02 	lds	r24, 0x0246
     dae:	74 dd       	rcall	.-1304   	; 0x898 <MENU_display_menu>
						
						}
						last_direction = dir;
     db0:	60 92 06 01 	sts	0x0106, r6
     db4:	2f ef       	ldi	r18, 0xFF	; 255
     db6:	8f e7       	ldi	r24, 0x7F	; 127
     db8:	91 e0       	ldi	r25, 0x01	; 1
     dba:	21 50       	subi	r18, 0x01	; 1
     dbc:	80 40       	sbci	r24, 0x00	; 0
     dbe:	90 40       	sbci	r25, 0x00	; 0
     dc0:	e1 f7       	brne	.-8      	; 0xdba <MENU_run_menu+0x1ae>
     dc2:	00 c0       	rjmp	.+0      	; 0xdc4 <MENU_run_menu+0x1b8>
     dc4:	00 c0       	rjmp	.+0      	; 0xdc6 <MENU_run_menu+0x1ba>
     dc6:	3c c0       	rjmp	.+120    	; 0xe40 <MENU_run_menu+0x234>
						_delay_ms(100);
						break;
				
					//enabling going to the previous menu by moving the joystick left
					case left:	
						if(last_direction == neutral){
     dc8:	80 91 06 01 	lds	r24, 0x0106
     dcc:	84 30       	cpi	r24, 0x04	; 4
     dce:	09 f5       	brne	.+66     	; 0xe12 <MENU_run_menu+0x206>
						MENU_back(current_menu);
     dd0:	00 91 3e 02 	lds	r16, 0x023E
     dd4:	10 91 3f 02 	lds	r17, 0x023F
     dd8:	20 91 40 02 	lds	r18, 0x0240
     ddc:	30 91 41 02 	lds	r19, 0x0241
     de0:	40 91 42 02 	lds	r20, 0x0242
     de4:	50 91 43 02 	lds	r21, 0x0243
     de8:	60 91 44 02 	lds	r22, 0x0244
     dec:	70 91 45 02 	lds	r23, 0x0245
     df0:	80 91 46 02 	lds	r24, 0x0246
     df4:	20 dd       	rcall	.-1472   	; 0x836 <MENU_back>
							if (current_menu.parent != NULL_PTR) {
     df6:	d5 01       	movw	r26, r10
     df8:	ed 91       	ld	r30, X+
     dfa:	fc 91       	ld	r31, X
     dfc:	30 97       	sbiw	r30, 0x00	; 0
     dfe:	39 f0       	breq	.+14     	; 0xe0e <MENU_run_menu+0x202>
								current_menu = *current_menu.parent;
     e00:	ae e3       	ldi	r26, 0x3E	; 62
     e02:	b2 e0       	ldi	r27, 0x02	; 2
     e04:	8f 2d       	mov	r24, r15
     e06:	01 90       	ld	r0, Z+
     e08:	0d 92       	st	X+, r0
     e0a:	8a 95       	dec	r24
     e0c:	e1 f7       	brne	.-8      	; 0xe06 <MENU_run_menu+0x1fa>
							}
							
							current_line = 0;
     e0e:	10 92 3d 02 	sts	0x023D, r1
						}
					
						last_direction = dir;
     e12:	10 92 06 01 	sts	0x0106, r1
     e16:	bf ef       	ldi	r27, 0xFF	; 255
     e18:	ef e7       	ldi	r30, 0x7F	; 127
     e1a:	f1 e0       	ldi	r31, 0x01	; 1
     e1c:	b1 50       	subi	r27, 0x01	; 1
     e1e:	e0 40       	sbci	r30, 0x00	; 0
     e20:	f0 40       	sbci	r31, 0x00	; 0
     e22:	e1 f7       	brne	.-8      	; 0xe1c <MENU_run_menu+0x210>
     e24:	00 c0       	rjmp	.+0      	; 0xe26 <MENU_run_menu+0x21a>
     e26:	00 c0       	rjmp	.+0      	; 0xe28 <MENU_run_menu+0x21c>
     e28:	0b c0       	rjmp	.+22     	; 0xe40 <MENU_run_menu+0x234>
						_delay_ms(100);
						break;
					
					case neutral:
						last_direction = dir;
     e2a:	40 92 06 01 	sts	0x0106, r4
     e2e:	2f ef       	ldi	r18, 0xFF	; 255
     e30:	8f e7       	ldi	r24, 0x7F	; 127
     e32:	91 e0       	ldi	r25, 0x01	; 1
     e34:	21 50       	subi	r18, 0x01	; 1
     e36:	80 40       	sbci	r24, 0x00	; 0
     e38:	90 40       	sbci	r25, 0x00	; 0
     e3a:	e1 f7       	brne	.-8      	; 0xe34 <MENU_run_menu+0x228>
     e3c:	00 c0       	rjmp	.+0      	; 0xe3e <MENU_run_menu+0x232>
     e3e:	00 c0       	rjmp	.+0      	; 0xe40 <MENU_run_menu+0x234>
void MENU_run_menu(void){
	
	MENU_display_menu(main_menu,0);
		while(!quit) {
			
			JOY_position_t pos = JOY_getPosition();
     e40:	62 db       	rcall	.-2364   	; 0x506 <JOY_getPosition>
			
			JOY_direction_t dir = JOY_getDirection();
     e42:	97 db       	rcall	.-2258   	; 0x572 <JOY_getDirection>
		
			menu_t choice = *current_menu.submenus[current_line];		
     e44:	40 91 3d 02 	lds	r20, 0x023D
     e48:	e4 2f       	mov	r30, r20
     e4a:	f0 e0       	ldi	r31, 0x00	; 0
     e4c:	ee 0f       	add	r30, r30
     e4e:	ff 1f       	adc	r31, r31
     e50:	20 91 43 02 	lds	r18, 0x0243
     e54:	30 91 44 02 	lds	r19, 0x0244
     e58:	e2 0f       	add	r30, r18
     e5a:	f3 1f       	adc	r31, r19
     e5c:	01 90       	ld	r0, Z+
     e5e:	f0 81       	ld	r31, Z
     e60:	e0 2d       	mov	r30, r0
     e62:	de 01       	movw	r26, r28
     e64:	11 96       	adiw	r26, 0x01	; 1
     e66:	9f 2d       	mov	r25, r15
     e68:	01 90       	ld	r0, Z+
     e6a:	0d 92       	st	X+, r0
     e6c:	9a 95       	dec	r25
     e6e:	e1 f7       	brne	.-8      	; 0xe68 <MENU_run_menu+0x25c>
		
				//establishing the joystick commands
				switch (dir) {	
     e70:	82 30       	cpi	r24, 0x02	; 2
     e72:	09 f4       	brne	.+2      	; 0xe76 <MENU_run_menu+0x26a>
     e74:	0c cf       	rjmp	.-488    	; 0xc8e <MENU_run_menu+0x82>
     e76:	38 f4       	brcc	.+14     	; 0xe86 <MENU_run_menu+0x27a>
     e78:	88 23       	and	r24, r24
     e7a:	09 f4       	brne	.+2      	; 0xe7e <MENU_run_menu+0x272>
     e7c:	a5 cf       	rjmp	.-182    	; 0xdc8 <MENU_run_menu+0x1bc>
     e7e:	81 30       	cpi	r24, 0x01	; 1
     e80:	09 f4       	brne	.+2      	; 0xe84 <MENU_run_menu+0x278>
     e82:	69 cf       	rjmp	.-302    	; 0xd56 <MENU_run_menu+0x14a>
     e84:	dd cf       	rjmp	.-70     	; 0xe40 <MENU_run_menu+0x234>
     e86:	83 30       	cpi	r24, 0x03	; 3
     e88:	09 f4       	brne	.+2      	; 0xe8c <MENU_run_menu+0x280>
     e8a:	2b cf       	rjmp	.-426    	; 0xce2 <MENU_run_menu+0xd6>
     e8c:	84 30       	cpi	r24, 0x04	; 4
     e8e:	69 f2       	breq	.-102    	; 0xe2a <MENU_run_menu+0x21e>
     e90:	d7 cf       	rjmp	.-82     	; 0xe40 <MENU_run_menu+0x234>

00000e92 <OLED_init>:
	}
}

uint8_t OLED_pos(uint8_t row){
	return current_line;
}
     e92:	e0 e0       	ldi	r30, 0x00	; 0
     e94:	f0 e1       	ldi	r31, 0x10	; 16
     e96:	8e ea       	ldi	r24, 0xAE	; 174
     e98:	80 83       	st	Z, r24
     e9a:	81 ea       	ldi	r24, 0xA1	; 161
     e9c:	80 83       	st	Z, r24
     e9e:	8a ed       	ldi	r24, 0xDA	; 218
     ea0:	80 83       	st	Z, r24
     ea2:	82 e1       	ldi	r24, 0x12	; 18
     ea4:	80 83       	st	Z, r24
     ea6:	88 ec       	ldi	r24, 0xC8	; 200
     ea8:	80 83       	st	Z, r24
     eaa:	88 ea       	ldi	r24, 0xA8	; 168
     eac:	80 83       	st	Z, r24
     eae:	8f e3       	ldi	r24, 0x3F	; 63
     eb0:	80 83       	st	Z, r24
     eb2:	85 ed       	ldi	r24, 0xD5	; 213
     eb4:	80 83       	st	Z, r24
     eb6:	80 e8       	ldi	r24, 0x80	; 128
     eb8:	80 83       	st	Z, r24
     eba:	81 e8       	ldi	r24, 0x81	; 129
     ebc:	80 83       	st	Z, r24
     ebe:	80 e5       	ldi	r24, 0x50	; 80
     ec0:	80 83       	st	Z, r24
     ec2:	89 ed       	ldi	r24, 0xD9	; 217
     ec4:	80 83       	st	Z, r24
     ec6:	81 e2       	ldi	r24, 0x21	; 33
     ec8:	80 83       	st	Z, r24
     eca:	80 e2       	ldi	r24, 0x20	; 32
     ecc:	80 83       	st	Z, r24
     ece:	82 e0       	ldi	r24, 0x02	; 2
     ed0:	80 83       	st	Z, r24
     ed2:	8b ed       	ldi	r24, 0xDB	; 219
     ed4:	80 83       	st	Z, r24
     ed6:	80 e3       	ldi	r24, 0x30	; 48
     ed8:	80 83       	st	Z, r24
     eda:	8d ea       	ldi	r24, 0xAD	; 173
     edc:	80 83       	st	Z, r24
     ede:	10 82       	st	Z, r1
     ee0:	84 ea       	ldi	r24, 0xA4	; 164
     ee2:	80 83       	st	Z, r24
     ee4:	86 ea       	ldi	r24, 0xA6	; 166
     ee6:	80 83       	st	Z, r24
     ee8:	8f ea       	ldi	r24, 0xAF	; 175
     eea:	80 83       	st	Z, r24
     eec:	08 95       	ret

00000eee <OLED_goto_line>:
     eee:	90 eb       	ldi	r25, 0xB0	; 176
     ef0:	98 0f       	add	r25, r24
     ef2:	e0 e0       	ldi	r30, 0x00	; 0
     ef4:	f0 e1       	ldi	r31, 0x10	; 16
     ef6:	90 83       	st	Z, r25
     ef8:	90 e1       	ldi	r25, 0x10	; 16
     efa:	90 83       	st	Z, r25
     efc:	10 82       	st	Z, r1
     efe:	80 93 50 02 	sts	0x0250, r24
     f02:	08 95       	ret

00000f04 <OLED_clear_display>:
     f04:	80 eb       	ldi	r24, 0xB0	; 176
     f06:	a0 e0       	ldi	r26, 0x00	; 0
     f08:	b0 e1       	ldi	r27, 0x10	; 16
     f0a:	20 e1       	ldi	r18, 0x10	; 16
     f0c:	e0 e0       	ldi	r30, 0x00	; 0
     f0e:	f2 e1       	ldi	r31, 0x12	; 18
     f10:	91 e0       	ldi	r25, 0x01	; 1
     f12:	98 0f       	add	r25, r24
     f14:	8c 93       	st	X, r24
     f16:	2c 93       	st	X, r18
     f18:	1c 92       	st	X, r1
     f1a:	80 e0       	ldi	r24, 0x00	; 0
     f1c:	10 82       	st	Z, r1
     f1e:	8f 5f       	subi	r24, 0xFF	; 255
     f20:	80 38       	cpi	r24, 0x80	; 128
     f22:	e1 f7       	brne	.-8      	; 0xf1c <OLED_clear_display+0x18>
     f24:	98 3b       	cpi	r25, 0xB8	; 184
     f26:	11 f0       	breq	.+4      	; 0xf2c <OLED_clear_display+0x28>
     f28:	89 2f       	mov	r24, r25
     f2a:	f2 cf       	rjmp	.-28     	; 0xf10 <OLED_clear_display+0xc>
     f2c:	10 92 50 02 	sts	0x0250, r1
     f30:	80 e0       	ldi	r24, 0x00	; 0
     f32:	dd cf       	rjmp	.-70     	; 0xeee <OLED_goto_line>
     f34:	08 95       	ret

00000f36 <OLED_goto_column>:
     f36:	98 2f       	mov	r25, r24
     f38:	92 95       	swap	r25
     f3a:	9f 70       	andi	r25, 0x0F	; 15
     f3c:	90 5f       	subi	r25, 0xF0	; 240
     f3e:	e0 e0       	ldi	r30, 0x00	; 0
     f40:	f0 e1       	ldi	r31, 0x10	; 16
     f42:	90 83       	st	Z, r25
     f44:	8f 70       	andi	r24, 0x0F	; 15
     f46:	80 83       	st	Z, r24
     f48:	08 95       	ret

00000f4a <OLED_print_char>:

//prints a character to the OLED
void OLED_print_char(char c){
     f4a:	e8 2f       	mov	r30, r24
     f4c:	f0 e0       	ldi	r31, 0x00	; 0
     f4e:	b0 97       	sbiw	r30, 0x20	; 32
     f50:	cf 01       	movw	r24, r30
     f52:	88 0f       	add	r24, r24
     f54:	99 1f       	adc	r25, r25
     f56:	88 0f       	add	r24, r24
     f58:	99 1f       	adc	r25, r25
     f5a:	e8 0f       	add	r30, r24
     f5c:	f9 1f       	adc	r31, r25
     f5e:	e6 53       	subi	r30, 0x36	; 54
     f60:	ff 4f       	sbci	r31, 0xFF	; 255
	for (int i = 0; i < font5_size; i++) {
     f62:	80 e0       	ldi	r24, 0x00	; 0
     f64:	90 e0       	ldi	r25, 0x00	; 0
		*ext_oled_data = pgm_read_byte(&(font5[c - ASCII_OFFSET][i]));
     f66:	a0 e0       	ldi	r26, 0x00	; 0
     f68:	b2 e1       	ldi	r27, 0x12	; 18
     f6a:	24 91       	lpm	r18, Z
     f6c:	2c 93       	st	X, r18
	return current_line;
}

//prints a character to the OLED
void OLED_print_char(char c){
	for (int i = 0; i < font5_size; i++) {
     f6e:	01 96       	adiw	r24, 0x01	; 1
     f70:	31 96       	adiw	r30, 0x01	; 1
     f72:	85 30       	cpi	r24, 0x05	; 5
     f74:	91 05       	cpc	r25, r1
     f76:	c9 f7       	brne	.-14     	; 0xf6a <OLED_print_char+0x20>
		*ext_oled_data = pgm_read_byte(&(font5[c - ASCII_OFFSET][i]));
	}

}
     f78:	08 95       	ret

00000f7a <OLED_print_capital_char>:


void OLED_print_capital_char(char c){
     f7a:	e8 2f       	mov	r30, r24
     f7c:	f0 e0       	ldi	r31, 0x00	; 0
     f7e:	e0 54       	subi	r30, 0x40	; 64
     f80:	f1 09       	sbc	r31, r1
     f82:	cf 01       	movw	r24, r30
     f84:	88 0f       	add	r24, r24
     f86:	99 1f       	adc	r25, r25
     f88:	88 0f       	add	r24, r24
     f8a:	99 1f       	adc	r25, r25
     f8c:	e8 0f       	add	r30, r24
     f8e:	f9 1f       	adc	r31, r25
     f90:	e6 53       	subi	r30, 0x36	; 54
     f92:	ff 4f       	sbci	r31, 0xFF	; 255
	for (int i = 0; i < font5_size; i++) {
     f94:	80 e0       	ldi	r24, 0x00	; 0
     f96:	90 e0       	ldi	r25, 0x00	; 0
		*ext_oled_data = pgm_read_byte(&(font5[c - ASCII_OFFSET - CAPITAL_LETTER_OFFSET][i]));
     f98:	a0 e0       	ldi	r26, 0x00	; 0
     f9a:	b2 e1       	ldi	r27, 0x12	; 18
     f9c:	24 91       	lpm	r18, Z
     f9e:	2c 93       	st	X, r18

}


void OLED_print_capital_char(char c){
	for (int i = 0; i < font5_size; i++) {
     fa0:	01 96       	adiw	r24, 0x01	; 1
     fa2:	31 96       	adiw	r30, 0x01	; 1
     fa4:	85 30       	cpi	r24, 0x05	; 5
     fa6:	91 05       	cpc	r25, r1
     fa8:	c9 f7       	brne	.-14     	; 0xf9c <OLED_print_capital_char+0x22>
		*ext_oled_data = pgm_read_byte(&(font5[c - ASCII_OFFSET - CAPITAL_LETTER_OFFSET][i]));
	}

}
     faa:	08 95       	ret

00000fac <OLED_print_inverted_char>:

//prints a character in black with a white bacground
void OLED_print_inverted_char(char c){
     fac:	e8 2f       	mov	r30, r24
     fae:	f0 e0       	ldi	r31, 0x00	; 0
     fb0:	b0 97       	sbiw	r30, 0x20	; 32
     fb2:	cf 01       	movw	r24, r30
     fb4:	88 0f       	add	r24, r24
     fb6:	99 1f       	adc	r25, r25
     fb8:	88 0f       	add	r24, r24
     fba:	99 1f       	adc	r25, r25
     fbc:	e8 0f       	add	r30, r24
     fbe:	f9 1f       	adc	r31, r25
     fc0:	e6 53       	subi	r30, 0x36	; 54
     fc2:	ff 4f       	sbci	r31, 0xFF	; 255
	for (int i = 0; i < font5_size; i++) {
     fc4:	80 e0       	ldi	r24, 0x00	; 0
     fc6:	90 e0       	ldi	r25, 0x00	; 0
		*ext_oled_data = ~pgm_read_byte(&((font5[c - ASCII_OFFSET][i])));
     fc8:	a0 e0       	ldi	r26, 0x00	; 0
     fca:	b2 e1       	ldi	r27, 0x12	; 18
     fcc:	24 91       	lpm	r18, Z
     fce:	20 95       	com	r18
     fd0:	2c 93       	st	X, r18

}

//prints a character in black with a white bacground
void OLED_print_inverted_char(char c){
	for (int i = 0; i < font5_size; i++) {
     fd2:	01 96       	adiw	r24, 0x01	; 1
     fd4:	31 96       	adiw	r30, 0x01	; 1
     fd6:	85 30       	cpi	r24, 0x05	; 5
     fd8:	91 05       	cpc	r25, r1
     fda:	c1 f7       	brne	.-16     	; 0xfcc <OLED_print_inverted_char+0x20>
		*ext_oled_data = ~pgm_read_byte(&((font5[c - ASCII_OFFSET][i])));
	}

}
     fdc:	08 95       	ret

00000fde <OLED_print_string>:

//prints a string to the OLEd	
void OLED_print_string(char c[]){
     fde:	ff 92       	push	r15
     fe0:	0f 93       	push	r16
     fe2:	1f 93       	push	r17
     fe4:	cf 93       	push	r28
     fe6:	df 93       	push	r29
     fe8:	ec 01       	movw	r28, r24
	
	uint8_t str_index = 0;
	uint8_t line_index = 0;
	OLED_goto_column(64-((strlen(c)*font5_size)/2));
     fea:	fc 01       	movw	r30, r24
     fec:	01 90       	ld	r0, Z+
     fee:	00 20       	and	r0, r0
     ff0:	e9 f7       	brne	.-6      	; 0xfec <OLED_print_string+0xe>
     ff2:	31 97       	sbiw	r30, 0x01	; 1
     ff4:	e8 1b       	sub	r30, r24
     ff6:	f9 0b       	sbc	r31, r25
     ff8:	cf 01       	movw	r24, r30
     ffa:	88 0f       	add	r24, r24
     ffc:	99 1f       	adc	r25, r25
     ffe:	88 0f       	add	r24, r24
    1000:	99 1f       	adc	r25, r25
    1002:	e8 0f       	add	r30, r24
    1004:	f9 1f       	adc	r31, r25
    1006:	f6 95       	lsr	r31
    1008:	e7 95       	ror	r30
    100a:	80 e4       	ldi	r24, 0x40	; 64
    100c:	8e 1b       	sub	r24, r30
    100e:	93 df       	rcall	.-218    	; 0xf36 <OLED_goto_column>

//prints a string to the OLEd	
void OLED_print_string(char c[]){
	
	uint8_t str_index = 0;
	uint8_t line_index = 0;
    1010:	10 e0       	ldi	r17, 0x00	; 0
}

//prints a string to the OLEd	
void OLED_print_string(char c[]){
	
	uint8_t str_index = 0;
    1012:	00 e0       	ldi	r16, 0x00	; 0
	while (c[str_index] != '\0') {
		line_index++;
		
		OLED_print_char(c[str_index++]);
		if (line_index > 122/font5_size) {
			line_index = 0;
    1014:	f1 2c       	mov	r15, r1
void OLED_print_string(char c[]){
	
	uint8_t str_index = 0;
	uint8_t line_index = 0;
	OLED_goto_column(64-((strlen(c)*font5_size)/2));
	while (c[str_index] != '\0') {
    1016:	0c c0       	rjmp	.+24     	; 0x1030 <OLED_print_string+0x52>
		line_index++;
    1018:	1f 5f       	subi	r17, 0xFF	; 255
		
		OLED_print_char(c[str_index++]);
    101a:	0f 5f       	subi	r16, 0xFF	; 255
    101c:	96 df       	rcall	.-212    	; 0xf4a <OLED_print_char>
		if (line_index > 122/font5_size) {
    101e:	19 31       	cpi	r17, 0x19	; 25
    1020:	38 f0       	brcs	.+14     	; 0x1030 <OLED_print_string+0x52>
			line_index = 0;
			OLED_goto_line(++current_line);
    1022:	80 91 50 02 	lds	r24, 0x0250
    1026:	8f 5f       	subi	r24, 0xFF	; 255
    1028:	80 93 50 02 	sts	0x0250, r24
    102c:	60 df       	rcall	.-320    	; 0xeee <OLED_goto_line>
	while (c[str_index] != '\0') {
		line_index++;
		
		OLED_print_char(c[str_index++]);
		if (line_index > 122/font5_size) {
			line_index = 0;
    102e:	1f 2d       	mov	r17, r15
void OLED_print_string(char c[]){
	
	uint8_t str_index = 0;
	uint8_t line_index = 0;
	OLED_goto_column(64-((strlen(c)*font5_size)/2));
	while (c[str_index] != '\0') {
    1030:	fe 01       	movw	r30, r28
    1032:	e0 0f       	add	r30, r16
    1034:	f1 1d       	adc	r31, r1
    1036:	80 81       	ld	r24, Z
    1038:	81 11       	cpse	r24, r1
    103a:	ee cf       	rjmp	.-36     	; 0x1018 <OLED_print_string+0x3a>
			
		}
	}
	
	
}
    103c:	df 91       	pop	r29
    103e:	cf 91       	pop	r28
    1040:	1f 91       	pop	r17
    1042:	0f 91       	pop	r16
    1044:	ff 90       	pop	r15
    1046:	08 95       	ret

00001048 <OLED_print_header>:

//Prints a string in all caps at the top of the OLED
void OLED_print_header(char c[]){
    1048:	ff 92       	push	r15
    104a:	0f 93       	push	r16
    104c:	1f 93       	push	r17
    104e:	cf 93       	push	r28
    1050:	df 93       	push	r29
    1052:	ec 01       	movw	r28, r24
	
	uint8_t str_index = 0;
	uint8_t line_index = 0;
	OLED_goto_column(64-((strlen(c)*5)/2));
    1054:	fc 01       	movw	r30, r24
    1056:	01 90       	ld	r0, Z+
    1058:	00 20       	and	r0, r0
    105a:	e9 f7       	brne	.-6      	; 0x1056 <OLED_print_header+0xe>
    105c:	31 97       	sbiw	r30, 0x01	; 1
    105e:	e8 1b       	sub	r30, r24
    1060:	f9 0b       	sbc	r31, r25
    1062:	cf 01       	movw	r24, r30
    1064:	88 0f       	add	r24, r24
    1066:	99 1f       	adc	r25, r25
    1068:	88 0f       	add	r24, r24
    106a:	99 1f       	adc	r25, r25
    106c:	e8 0f       	add	r30, r24
    106e:	f9 1f       	adc	r31, r25
    1070:	f6 95       	lsr	r31
    1072:	e7 95       	ror	r30
    1074:	80 e4       	ldi	r24, 0x40	; 64
    1076:	8e 1b       	sub	r24, r30
    1078:	5e df       	rcall	.-324    	; 0xf36 <OLED_goto_column>
	
	while (c[str_index] != '\0') {
    107a:	01 e0       	ldi	r16, 0x01	; 1

//Prints a string in all caps at the top of the OLED
void OLED_print_header(char c[]){
	
	uint8_t str_index = 0;
	uint8_t line_index = 0;
    107c:	10 e0       	ldi	r17, 0x00	; 0
		}
		else {
			OLED_print_char(c[str_index++]);
		}
		if (line_index > 122/font5_size) {
			line_index = 0;
    107e:	f1 2c       	mov	r15, r1
	
	uint8_t str_index = 0;
	uint8_t line_index = 0;
	OLED_goto_column(64-((strlen(c)*5)/2));
	
	while (c[str_index] != '\0') {
    1080:	12 c0       	rjmp	.+36     	; 0x10a6 <OLED_print_header+0x5e>
		line_index++;
    1082:	1f 5f       	subi	r17, 0xFF	; 255
		if (c[str_index] >= 97 && c[str_index] <= 122) {
    1084:	9f e9       	ldi	r25, 0x9F	; 159
    1086:	98 0f       	add	r25, r24
    1088:	9a 31       	cpi	r25, 0x1A	; 26
    108a:	10 f4       	brcc	.+4      	; 0x1090 <OLED_print_header+0x48>
			OLED_print_capital_char(c[str_index++]);
    108c:	76 df       	rcall	.-276    	; 0xf7a <OLED_print_capital_char>
    108e:	01 c0       	rjmp	.+2      	; 0x1092 <OLED_print_header+0x4a>
		}
		else {
			OLED_print_char(c[str_index++]);
    1090:	5c df       	rcall	.-328    	; 0xf4a <OLED_print_char>
		}
		if (line_index > 122/font5_size) {
    1092:	19 31       	cpi	r17, 0x19	; 25
    1094:	38 f0       	brcs	.+14     	; 0x10a4 <OLED_print_header+0x5c>
			line_index = 0;
			OLED_goto_line(++current_line);
    1096:	80 91 50 02 	lds	r24, 0x0250
    109a:	8f 5f       	subi	r24, 0xFF	; 255
    109c:	80 93 50 02 	sts	0x0250, r24
    10a0:	26 df       	rcall	.-436    	; 0xeee <OLED_goto_line>
		}
		else {
			OLED_print_char(c[str_index++]);
		}
		if (line_index > 122/font5_size) {
			line_index = 0;
    10a2:	1f 2d       	mov	r17, r15
    10a4:	0f 5f       	subi	r16, 0xFF	; 255
    10a6:	8f ef       	ldi	r24, 0xFF	; 255
    10a8:	80 0f       	add	r24, r16
	
	uint8_t str_index = 0;
	uint8_t line_index = 0;
	OLED_goto_column(64-((strlen(c)*5)/2));
	
	while (c[str_index] != '\0') {
    10aa:	fe 01       	movw	r30, r28
    10ac:	e8 0f       	add	r30, r24
    10ae:	f1 1d       	adc	r31, r1
    10b0:	80 81       	ld	r24, Z
    10b2:	81 11       	cpse	r24, r1
    10b4:	e6 cf       	rjmp	.-52     	; 0x1082 <OLED_print_header+0x3a>
			
		}
	}
	
	
}
    10b6:	df 91       	pop	r29
    10b8:	cf 91       	pop	r28
    10ba:	1f 91       	pop	r17
    10bc:	0f 91       	pop	r16
    10be:	ff 90       	pop	r15
    10c0:	08 95       	ret

000010c2 <OLED_int_to_string>:

//converts an integer to a string
char* OLED_int_to_string(int integer){
    10c2:	cf 92       	push	r12
    10c4:	df 92       	push	r13
    10c6:	ef 92       	push	r14
    10c8:	ff 92       	push	r15
    10ca:	0f 93       	push	r16
    10cc:	1f 93       	push	r17
    10ce:	cf 93       	push	r28
    10d0:	df 93       	push	r29
    10d2:	cd b7       	in	r28, 0x3d	; 61
    10d4:	de b7       	in	r29, 0x3e	; 62
    10d6:	8c 01       	movw	r16, r24
	}
	char result[n+1];
	itoa(integer,result, 10);
	return result;
	
}
    10d8:	ed b6       	in	r14, 0x3d	; 61
    10da:	fe b6       	in	r15, 0x3e	; 62
}

//converts an integer to a string
char* OLED_int_to_string(int integer){
	int n;
	if (integer == 0){
    10dc:	00 97       	sbiw	r24, 0x00	; 0
    10de:	79 f0       	breq	.+30     	; 0x10fe <OLED_int_to_string+0x3c>
		n = 1;
	}
	else{
		n = floor(log10(integer)+1);
    10e0:	bc 01       	movw	r22, r24
    10e2:	88 27       	eor	r24, r24
    10e4:	77 fd       	sbrc	r23, 7
    10e6:	80 95       	com	r24
    10e8:	98 2f       	mov	r25, r24
    10ea:	d1 d1       	rcall	.+930    	; 0x148e <__floatsisf>
    10ec:	af d2       	rcall	.+1374   	; 0x164c <log10>
    10ee:	20 e0       	ldi	r18, 0x00	; 0
    10f0:	30 e0       	ldi	r19, 0x00	; 0
    10f2:	40 e8       	ldi	r20, 0x80	; 128
    10f4:	5f e3       	ldi	r21, 0x3F	; 63
    10f6:	34 d1       	rcall	.+616    	; 0x1360 <__addsf3>
    10f8:	05 d2       	rcall	.+1034   	; 0x1504 <floor>
    10fa:	96 d1       	rcall	.+812    	; 0x1428 <__fixsfsi>
    10fc:	02 c0       	rjmp	.+4      	; 0x1102 <OLED_int_to_string+0x40>

//converts an integer to a string
char* OLED_int_to_string(int integer){
	int n;
	if (integer == 0){
		n = 1;
    10fe:	61 e0       	ldi	r22, 0x01	; 1
    1100:	70 e0       	ldi	r23, 0x00	; 0
	}
	else{
		n = floor(log10(integer)+1);
	}
	char result[n+1];
    1102:	6f 5f       	subi	r22, 0xFF	; 255
    1104:	7f 4f       	sbci	r23, 0xFF	; 255
    1106:	8d b7       	in	r24, 0x3d	; 61
    1108:	9e b7       	in	r25, 0x3e	; 62
    110a:	86 1b       	sub	r24, r22
    110c:	97 0b       	sbc	r25, r23
    110e:	0f b6       	in	r0, 0x3f	; 63
    1110:	f8 94       	cli
    1112:	9e bf       	out	0x3e, r25	; 62
    1114:	0f be       	out	0x3f, r0	; 63
    1116:	8d bf       	out	0x3d, r24	; 61
    1118:	01 96       	adiw	r24, 0x01	; 1
    111a:	6c 01       	movw	r12, r24
    } else if (__radix < 2 || __radix > 36) {
	*__s = 0;
	return __s;
    } else {
	extern char *__itoa_ncheck (int, char *, unsigned char);
	return __itoa_ncheck (__val, __s, __radix);
    111c:	4a e0       	ldi	r20, 0x0A	; 10
    111e:	bc 01       	movw	r22, r24
    1120:	c8 01       	movw	r24, r16
    1122:	b5 d4       	rcall	.+2410   	; 0x1a8e <__itoa_ncheck>
	itoa(integer,result, 10);
	return result;
	
}
    1124:	c6 01       	movw	r24, r12
    1126:	0f b6       	in	r0, 0x3f	; 63
    1128:	f8 94       	cli
    112a:	fe be       	out	0x3e, r15	; 62
    112c:	0f be       	out	0x3f, r0	; 63
    112e:	ed be       	out	0x3d, r14	; 61
    1130:	df 91       	pop	r29
    1132:	cf 91       	pop	r28
    1134:	1f 91       	pop	r17
    1136:	0f 91       	pop	r16
    1138:	ff 90       	pop	r15
    113a:	ef 90       	pop	r14
    113c:	df 90       	pop	r13
    113e:	cf 90       	pop	r12
    1140:	08 95       	ret

00001142 <OLED_print_inverted_string>:


//prints a black string with white background
void OLED_print_inverted_string(char c[]) {
    1142:	ff 92       	push	r15
    1144:	0f 93       	push	r16
    1146:	1f 93       	push	r17
    1148:	cf 93       	push	r28
    114a:	df 93       	push	r29
    114c:	ec 01       	movw	r28, r24
	
	for (uint8_t i = 0; i < columns_in_line; i++) {
    114e:	80 e0       	ldi	r24, 0x00	; 0
		*ext_oled_data = FILL;
    1150:	e0 e0       	ldi	r30, 0x00	; 0
    1152:	f2 e1       	ldi	r31, 0x12	; 18
    1154:	9f ef       	ldi	r25, 0xFF	; 255
    1156:	90 83       	st	Z, r25


//prints a black string with white background
void OLED_print_inverted_string(char c[]) {
	
	for (uint8_t i = 0; i < columns_in_line; i++) {
    1158:	8f 5f       	subi	r24, 0xFF	; 255
    115a:	80 38       	cpi	r24, 0x80	; 128
    115c:	e1 f7       	brne	.-8      	; 0x1156 <OLED_print_inverted_string+0x14>
	}
	
	
	uint8_t str_index = 0;
	uint8_t line_index = 0;
	uint8_t start_index_centralized = 64-((strlen(c)*font5_size)/2);
    115e:	fe 01       	movw	r30, r28
    1160:	01 90       	ld	r0, Z+
    1162:	00 20       	and	r0, r0
    1164:	e9 f7       	brne	.-6      	; 0x1160 <OLED_print_inverted_string+0x1e>
    1166:	31 97       	sbiw	r30, 0x01	; 1
    1168:	ec 1b       	sub	r30, r28
    116a:	fd 0b       	sbc	r31, r29
    116c:	9f 01       	movw	r18, r30
    116e:	22 0f       	add	r18, r18
    1170:	33 1f       	adc	r19, r19
    1172:	22 0f       	add	r18, r18
    1174:	33 1f       	adc	r19, r19
    1176:	e2 0f       	add	r30, r18
    1178:	f3 1f       	adc	r31, r19
    117a:	9f 01       	movw	r18, r30
    117c:	36 95       	lsr	r19
    117e:	27 95       	ror	r18
	OLED_goto_column(start_index_centralized);
    1180:	80 e4       	ldi	r24, 0x40	; 64
    1182:	82 1b       	sub	r24, r18
    1184:	d8 de       	rcall	.-592    	; 0xf36 <OLED_goto_column>
	
	}
	
	
	uint8_t str_index = 0;
	uint8_t line_index = 0;
    1186:	10 e0       	ldi	r17, 0x00	; 0
		*ext_oled_data = FILL;
	
	}
	
	
	uint8_t str_index = 0;
    1188:	00 e0       	ldi	r16, 0x00	; 0
	while (c[str_index] != '\0') {
		line_index++;
		OLED_print_inverted_char(c[str_index++]);
		
		if (line_index > 122/font5_size) {
			line_index = 0;
    118a:	f1 2c       	mov	r15, r1
	
	uint8_t str_index = 0;
	uint8_t line_index = 0;
	uint8_t start_index_centralized = 64-((strlen(c)*font5_size)/2);
	OLED_goto_column(start_index_centralized);
	while (c[str_index] != '\0') {
    118c:	0c c0       	rjmp	.+24     	; 0x11a6 <OLED_print_inverted_string+0x64>
		line_index++;
    118e:	1f 5f       	subi	r17, 0xFF	; 255
		OLED_print_inverted_char(c[str_index++]);
    1190:	0f 5f       	subi	r16, 0xFF	; 255
    1192:	0c df       	rcall	.-488    	; 0xfac <OLED_print_inverted_char>
		
		if (line_index > 122/font5_size) {
    1194:	19 31       	cpi	r17, 0x19	; 25
    1196:	38 f0       	brcs	.+14     	; 0x11a6 <OLED_print_inverted_string+0x64>
			line_index = 0;
			OLED_goto_line(++current_line);
    1198:	80 91 50 02 	lds	r24, 0x0250
    119c:	8f 5f       	subi	r24, 0xFF	; 255
    119e:	80 93 50 02 	sts	0x0250, r24
    11a2:	a5 de       	rcall	.-694    	; 0xeee <OLED_goto_line>
	while (c[str_index] != '\0') {
		line_index++;
		OLED_print_inverted_char(c[str_index++]);
		
		if (line_index > 122/font5_size) {
			line_index = 0;
    11a4:	1f 2d       	mov	r17, r15
	
	uint8_t str_index = 0;
	uint8_t line_index = 0;
	uint8_t start_index_centralized = 64-((strlen(c)*font5_size)/2);
	OLED_goto_column(start_index_centralized);
	while (c[str_index] != '\0') {
    11a6:	fe 01       	movw	r30, r28
    11a8:	e0 0f       	add	r30, r16
    11aa:	f1 1d       	adc	r31, r1
    11ac:	80 81       	ld	r24, Z
    11ae:	81 11       	cpse	r24, r1
    11b0:	ee cf       	rjmp	.-36     	; 0x118e <OLED_print_inverted_string+0x4c>
			
		}
	
	
	}
}
    11b2:	df 91       	pop	r29
    11b4:	cf 91       	pop	r28
    11b6:	1f 91       	pop	r17
    11b8:	0f 91       	pop	r16
    11ba:	ff 90       	pop	r15
    11bc:	08 95       	ret

000011be <SPI_init>:


void SPI_init() {
	
	#ifdef __AVR_ATmega162__
	DDRB |= (1<<DDB7);						//SCK
    11be:	bf 9a       	sbi	0x17, 7	; 23
	DDRB |= (1<<DDB5);						//MOSI
    11c0:	bd 9a       	sbi	0x17, 5	; 23
	DDRB |= (1<<DDB4);						//SS
    11c2:	bc 9a       	sbi	0x17, 4	; 23
	DDRB &= ~(1<<DDB6);						//MISO
    11c4:	be 98       	cbi	0x17, 6	; 23
	DDRB &= ~(1<<DDB3);						//MISO
	
	#endif
	
	
	SPCR &= ~(1<<DORD);						//MSB of data word transmitted first
    11c6:	6d 98       	cbi	0x0d, 5	; 13
	SPCR |= (1<<MSTR);						//Master mode enable
    11c8:	6c 9a       	sbi	0x0d, 4	; 13
	SPCR |= (1<<SPE);						//SPI Enable
    11ca:	6e 9a       	sbi	0x0d, 6	; 13
	SPCR |= (1<<SPR0);						//SCK frequency = F_OSC/16 
    11cc:	68 9a       	sbi	0x0d, 0	; 13
	SPCR &= ~(1<<SPR1);
    11ce:	69 98       	cbi	0x0d, 1	; 13
    11d0:	08 95       	ret

000011d2 <SPI_send>:


void SPI_send(uint8_t message) {
	
	//Start transmission
	SPDR = message;							
    11d2:	8f b9       	out	0x0f, r24	; 15

	//Wait until transmission is complete
	while (!(SPSR & (1<<SPIF))) {}			
    11d4:	77 9b       	sbis	0x0e, 7	; 14
    11d6:	fe cf       	rjmp	.-4      	; 0x11d4 <SPI_send+0x2>
}
    11d8:	08 95       	ret

000011da <SPI_read>:


uint8_t SPI_read() {
	
	//Transmisson of dummy byte, to be able to read from slave
	SPI_send(0x01);
    11da:	81 e0       	ldi	r24, 0x01	; 1
    11dc:	fa df       	rcall	.-12     	; 0x11d2 <SPI_send>
								
	//Wait until transmission is complete
	while (!(SPSR & (1<<SPIF))) {}			
    11de:	77 9b       	sbis	0x0e, 7	; 14
    11e0:	fe cf       	rjmp	.-4      	; 0x11de <SPI_read+0x4>
	
	return SPDR;							
    11e2:	8f b1       	in	r24, 0x0f	; 15
	
}
    11e4:	08 95       	ret

000011e6 <SPI_enable_chipselect>:


void SPI_enable_chipselect(void) { 
	PORTB &= ~(1<<PB4);
    11e6:	c4 98       	cbi	0x18, 4	; 24
    11e8:	08 95       	ret

000011ea <SPI_disable_chipselect>:
}



void SPI_disable_chipselect(void) { 
	PORTB |= (1<<PB4);
    11ea:	c4 9a       	sbi	0x18, 4	; 24
    11ec:	08 95       	ret

000011ee <SRAM_init>:

void SRAM_init(void){
	
	#ifdef __AVR_ATmega162__
	// enable external reset
	MCUCR |= (1 << SRE);
    11ee:	85 b7       	in	r24, 0x35	; 53
    11f0:	80 68       	ori	r24, 0x80	; 128
    11f2:	85 bf       	out	0x35, r24	; 53
	
	SFIOR |= (1 << XMM2);
    11f4:	80 b7       	in	r24, 0x30	; 48
    11f6:	80 62       	ori	r24, 0x20	; 32
    11f8:	80 bf       	out	0x30, r24	; 48
    11fa:	08 95       	ret

000011fc <__vector_13>:

uint16_t volatile static stopwatch = 0;
uint8_t counter = 0;


ISR(TIMER1_COMPA_vect) {
    11fc:	1f 92       	push	r1
    11fe:	0f 92       	push	r0
    1200:	0f b6       	in	r0, 0x3f	; 63
    1202:	0f 92       	push	r0
    1204:	11 24       	eor	r1, r1
    1206:	8f 93       	push	r24
    1208:	9f 93       	push	r25
	
	stopwatch = stopwatch + 1;
    120a:	80 91 51 02 	lds	r24, 0x0251
    120e:	90 91 52 02 	lds	r25, 0x0252
    1212:	01 96       	adiw	r24, 0x01	; 1
    1214:	90 93 52 02 	sts	0x0252, r25
    1218:	80 93 51 02 	sts	0x0251, r24
    121c:	8c ec       	ldi	r24, 0xCC	; 204
    121e:	94 e0       	ldi	r25, 0x04	; 4
    1220:	01 97       	sbiw	r24, 0x01	; 1
    1222:	f1 f7       	brne	.-4      	; 0x1220 <__vector_13+0x24>
    1224:	00 c0       	rjmp	.+0      	; 0x1226 <__vector_13+0x2a>
    1226:	00 00       	nop
	_delay_ms(1);
} 
    1228:	9f 91       	pop	r25
    122a:	8f 91       	pop	r24
    122c:	0f 90       	pop	r0
    122e:	0f be       	out	0x3f, r0	; 63
    1230:	0f 90       	pop	r0
    1232:	1f 90       	pop	r1
    1234:	18 95       	reti

00001236 <TIMER_init>:

void TIMER_init() {
	
	
	//CTC mode for highscore_timer
	TCCR1B |= (1 << WGM12);
    1236:	8e b5       	in	r24, 0x2e	; 46
    1238:	88 60       	ori	r24, 0x08	; 8
    123a:	8e bd       	out	0x2e, r24	; 46
	
	//Want to count each second:
	//Clock frequency = 16 000 000 and prescaler = 1024 ---> 4915200/1024 = 4800 ticks per sec
	
	//Defining top value of counter for highscore_timer --> reset each second
	OCR1A = 4800;
    123c:	80 ec       	ldi	r24, 0xC0	; 192
    123e:	92 e1       	ldi	r25, 0x12	; 18
    1240:	9b bd       	out	0x2b, r25	; 43
    1242:	8a bd       	out	0x2a, r24	; 42

	
	//Enable global interrupt
	sei();
    1244:	78 94       	sei
	
	//Enable Timer Output Compare Match A Interrupt for highscore_timer
	TIMSK |= (1 << OCIE1A);
    1246:	89 b7       	in	r24, 0x39	; 57
    1248:	80 64       	ori	r24, 0x40	; 64
    124a:	89 bf       	out	0x39, r24	; 57
    124c:	08 95       	ret

0000124e <TIMER_start>:
	
}

void TIMER_start(){
	
	stopwatch = 0;
    124e:	10 92 52 02 	sts	0x0252, r1
    1252:	10 92 51 02 	sts	0x0251, r1
	
	// initialize counter
	TCNT1 = 0;
    1256:	1d bc       	out	0x2d, r1	; 45
    1258:	1c bc       	out	0x2c, r1	; 44
	
	//Prescaler = 1024
	TCCR1B |= (1 << CS12)|(1 << CS10);
    125a:	8e b5       	in	r24, 0x2e	; 46
    125c:	85 60       	ori	r24, 0x05	; 5
    125e:	8e bd       	out	0x2e, r24	; 46
    1260:	08 95       	ret

00001262 <TIMER_stop>:


void TIMER_stop() {
	
	//Turning off clock source
	TCCR0 &= ~(1<<CS12) & ~(1 << CS11) & ~(1 << CS10);
    1262:	83 b7       	in	r24, 0x33	; 51
    1264:	88 7f       	andi	r24, 0xF8	; 248
    1266:	83 bf       	out	0x33, r24	; 51
    1268:	08 95       	ret

0000126a <TIMER_get_time>:
}



uint16_t TIMER_get_time() {
	return stopwatch;
    126a:	80 91 51 02 	lds	r24, 0x0251
    126e:	90 91 52 02 	lds	r25, 0x0252
}
    1272:	08 95       	ret

00001274 <UART_Init>:
    1274:	90 bd       	out	0x20, r25	; 32
    1276:	89 b9       	out	0x09, r24	; 9
    1278:	88 e1       	ldi	r24, 0x18	; 24
    127a:	8a b9       	out	0x0a, r24	; 10
    127c:	59 98       	cbi	0x0b, 1	; 11
    127e:	f8 94       	cli
    1280:	57 9a       	sbi	0x0a, 7	; 10
    1282:	5f 9a       	sbi	0x0b, 7	; 11
    1284:	78 94       	sei
    1286:	81 e0       	ldi	r24, 0x01	; 1
    1288:	90 e0       	ldi	r25, 0x00	; 0
    128a:	08 95       	ret

0000128c <UART_Transmit>:
    128c:	5d 9b       	sbis	0x0b, 5	; 11
    128e:	fe cf       	rjmp	.-4      	; 0x128c <UART_Transmit>
    1290:	8c b9       	out	0x0c, r24	; 12
    1292:	83 e0       	ldi	r24, 0x03	; 3
    1294:	90 e0       	ldi	r25, 0x00	; 0
    1296:	08 95       	ret

00001298 <UART_Recieve>:
    1298:	5f 9b       	sbis	0x0b, 7	; 11
    129a:	fe cf       	rjmp	.-4      	; 0x1298 <UART_Recieve>
    129c:	8c b1       	in	r24, 0x0c	; 12
    129e:	08 95       	ret

000012a0 <__vector_19>:


uint8_t RECEIVED = 0;

ISR(USART0_RXC_vect)
{
    12a0:	1f 92       	push	r1
    12a2:	0f 92       	push	r0
    12a4:	0f b6       	in	r0, 0x3f	; 63
    12a6:	0f 92       	push	r0
    12a8:	11 24       	eor	r1, r1
    12aa:	2f 93       	push	r18
    12ac:	3f 93       	push	r19
    12ae:	4f 93       	push	r20
    12b0:	5f 93       	push	r21
    12b2:	6f 93       	push	r22
    12b4:	7f 93       	push	r23
    12b6:	8f 93       	push	r24
    12b8:	9f 93       	push	r25
    12ba:	af 93       	push	r26
    12bc:	bf 93       	push	r27
    12be:	ef 93       	push	r30
    12c0:	ff 93       	push	r31
	RECEIVED = 1;
    12c2:	81 e0       	ldi	r24, 0x01	; 1
    12c4:	80 93 53 02 	sts	0x0253, r24
	
	unsigned char temp = UDR0;
    12c8:	8c b1       	in	r24, 0x0c	; 12
	UART_Transmit(temp); // for  teste at det funker
    12ca:	e0 df       	rcall	.-64     	; 0x128c <UART_Transmit>
}
    12cc:	ff 91       	pop	r31
    12ce:	ef 91       	pop	r30
    12d0:	bf 91       	pop	r27
    12d2:	af 91       	pop	r26
    12d4:	9f 91       	pop	r25
    12d6:	8f 91       	pop	r24
    12d8:	7f 91       	pop	r23
    12da:	6f 91       	pop	r22
    12dc:	5f 91       	pop	r21
    12de:	4f 91       	pop	r20
    12e0:	3f 91       	pop	r19
    12e2:	2f 91       	pop	r18
    12e4:	0f 90       	pop	r0
    12e6:	0f be       	out	0x3f, r0	; 63
    12e8:	0f 90       	pop	r0
    12ea:	1f 90       	pop	r1
    12ec:	18 95       	reti

000012ee <main>:
    12ee:	8f ef       	ldi	r24, 0xFF	; 255
    12f0:	9f e2       	ldi	r25, 0x2F	; 47
    12f2:	01 97       	sbiw	r24, 0x01	; 1
    12f4:	f1 f7       	brne	.-4      	; 0x12f2 <main+0x4>
    12f6:	00 c0       	rjmp	.+0      	; 0x12f8 <main+0xa>
    12f8:	00 00       	nop
int main(void)
{
	
	_delay_ms(10);

	DDRA = 0xFF;
    12fa:	8f ef       	ldi	r24, 0xFF	; 255
    12fc:	8a bb       	out	0x1a, r24	; 26

	UART_Init(UBRR);
    12fe:	8f e1       	ldi	r24, 0x1F	; 31
    1300:	90 e0       	ldi	r25, 0x00	; 0
    1302:	b8 df       	rcall	.-144    	; 0x1274 <UART_Init>
	fdevopen(&UART_Transmit, &UART_Recieve);
    1304:	6c e4       	ldi	r22, 0x4C	; 76
    1306:	79 e0       	ldi	r23, 0x09	; 9
    1308:	86 e4       	ldi	r24, 0x46	; 70
    130a:	99 e0       	ldi	r25, 0x09	; 9
    130c:	e3 d3       	rcall	.+1990   	; 0x1ad4 <fdevopen>
	SRAM_init();
    130e:	6f df       	rcall	.-290    	; 0x11ee <SRAM_init>
	CAN_init();
    1310:	0f d8       	rcall	.-4066   	; 0x330 <CAN_init>
	JOY_init();
    1312:	f3 d8       	rcall	.-3610   	; 0x4fa <JOY_init>
    1314:	9f ef       	ldi	r25, 0xFF	; 255
    1316:	2f e7       	ldi	r18, 0x7F	; 127
    1318:	81 e0       	ldi	r24, 0x01	; 1
    131a:	91 50       	subi	r25, 0x01	; 1
    131c:	20 40       	sbci	r18, 0x00	; 0
    131e:	80 40       	sbci	r24, 0x00	; 0
    1320:	e1 f7       	brne	.-8      	; 0x131a <main+0x2c>
    1322:	00 c0       	rjmp	.+0      	; 0x1324 <main+0x36>
    1324:	00 c0       	rjmp	.+0      	; 0x1326 <main+0x38>
	_delay_ms(100);
	OLED_init();
    1326:	b5 dd       	rcall	.-1174   	; 0xe92 <OLED_init>
		DDRB &= ~(1<<PB1);
    1328:	b9 98       	cbi	0x17, 1	; 23
		DDRB &= ~(1<<PB2);
    132a:	ba 98       	cbi	0x17, 2	; 23
	
	//SRAM_test();
	
	printf("hello");
    132c:	8b e2       	ldi	r24, 0x2B	; 43
    132e:	92 e0       	ldi	r25, 0x02	; 2
    1330:	9f 93       	push	r25
    1332:	8f 93       	push	r24
    1334:	19 d4       	rcall	.+2098   	; 0x1b68 <printf>
	//while(1){};
	OLED_clear_display();
    1336:	e6 dd       	rcall	.-1076   	; 0xf04 <OLED_clear_display>
	OLED_goto_line(0);
    1338:	80 e0       	ldi	r24, 0x00	; 0
    133a:	d9 dd       	rcall	.-1102   	; 0xeee <OLED_goto_line>
	OLED_goto_column(0);
    133c:	80 e0       	ldi	r24, 0x00	; 0
    133e:	fb dd       	rcall	.-1034   	; 0xf36 <OLED_goto_column>
	//cli();
	/*EEPROM_write(HIGHSCORE_1_ADDRESS,0);
	EEPROM_write(HIGHSCORE_2_ADDRESS,0);
	EEPROM_write(HIGHSCORE_3_ADDRESS,0);*/
	TIMER_init();
    1340:	7a df       	rcall	.-268    	; 0x1236 <TIMER_init>
	
	/*while(1){
		printf("EEPROM HIGHSCORE 1 = %d\n", EEPROM_read(HIGHSCORE_1_ADDRESS));
	}*/
	
	MENU_create();
    1342:	17 dc       	rcall	.-2002   	; 0xb72 <MENU_create>
	
	
	


	MENU_run_menu();
    1344:	63 dc       	rcall	.-1850   	; 0xc0c <MENU_run_menu>
	//MENU_run_menu();
	
	//can_message_t node_2_msg;
	
	
	printf("heiiii");
    1346:	81 e3       	ldi	r24, 0x31	; 49
    1348:	92 e0       	ldi	r25, 0x02	; 2
    134a:	9f 93       	push	r25
    134c:	8f 93       	push	r24
    134e:	0c d4       	rcall	.+2072   	; 0x1b68 <printf>
    1350:	0f 90       	pop	r0
    1352:	0f 90       	pop	r0
    1354:	0f 90       	pop	r0
    1356:	0f 90       	pop	r0
		_delay_ms(10);
	}*/

	

    1358:	80 e0       	ldi	r24, 0x00	; 0
    135a:	90 e0       	ldi	r25, 0x00	; 0
    135c:	08 95       	ret

0000135e <__subsf3>:
    135e:	50 58       	subi	r21, 0x80	; 128

00001360 <__addsf3>:
    1360:	bb 27       	eor	r27, r27
    1362:	aa 27       	eor	r26, r26
    1364:	0e d0       	rcall	.+28     	; 0x1382 <__addsf3x>
    1366:	21 c1       	rjmp	.+578    	; 0x15aa <__fp_round>
    1368:	12 d1       	rcall	.+548    	; 0x158e <__fp_pscA>
    136a:	30 f0       	brcs	.+12     	; 0x1378 <__addsf3+0x18>
    136c:	17 d1       	rcall	.+558    	; 0x159c <__fp_pscB>
    136e:	20 f0       	brcs	.+8      	; 0x1378 <__addsf3+0x18>
    1370:	31 f4       	brne	.+12     	; 0x137e <__addsf3+0x1e>
    1372:	9f 3f       	cpi	r25, 0xFF	; 255
    1374:	11 f4       	brne	.+4      	; 0x137a <__addsf3+0x1a>
    1376:	1e f4       	brtc	.+6      	; 0x137e <__addsf3+0x1e>
    1378:	07 c1       	rjmp	.+526    	; 0x1588 <__fp_nan>
    137a:	0e f4       	brtc	.+2      	; 0x137e <__addsf3+0x1e>
    137c:	e0 95       	com	r30
    137e:	e7 fb       	bst	r30, 7
    1380:	d4 c0       	rjmp	.+424    	; 0x152a <__fp_inf>

00001382 <__addsf3x>:
    1382:	e9 2f       	mov	r30, r25
    1384:	23 d1       	rcall	.+582    	; 0x15cc <__fp_split3>
    1386:	80 f3       	brcs	.-32     	; 0x1368 <__addsf3+0x8>
    1388:	ba 17       	cp	r27, r26
    138a:	62 07       	cpc	r22, r18
    138c:	73 07       	cpc	r23, r19
    138e:	84 07       	cpc	r24, r20
    1390:	95 07       	cpc	r25, r21
    1392:	18 f0       	brcs	.+6      	; 0x139a <__addsf3x+0x18>
    1394:	71 f4       	brne	.+28     	; 0x13b2 <__addsf3x+0x30>
    1396:	9e f5       	brtc	.+102    	; 0x13fe <__addsf3x+0x7c>
    1398:	52 c1       	rjmp	.+676    	; 0x163e <__fp_zero>
    139a:	0e f4       	brtc	.+2      	; 0x139e <__addsf3x+0x1c>
    139c:	e0 95       	com	r30
    139e:	0b 2e       	mov	r0, r27
    13a0:	ba 2f       	mov	r27, r26
    13a2:	a0 2d       	mov	r26, r0
    13a4:	0b 01       	movw	r0, r22
    13a6:	b9 01       	movw	r22, r18
    13a8:	90 01       	movw	r18, r0
    13aa:	0c 01       	movw	r0, r24
    13ac:	ca 01       	movw	r24, r20
    13ae:	a0 01       	movw	r20, r0
    13b0:	11 24       	eor	r1, r1
    13b2:	ff 27       	eor	r31, r31
    13b4:	59 1b       	sub	r21, r25
    13b6:	99 f0       	breq	.+38     	; 0x13de <__addsf3x+0x5c>
    13b8:	59 3f       	cpi	r21, 0xF9	; 249
    13ba:	50 f4       	brcc	.+20     	; 0x13d0 <__addsf3x+0x4e>
    13bc:	50 3e       	cpi	r21, 0xE0	; 224
    13be:	68 f1       	brcs	.+90     	; 0x141a <__addsf3x+0x98>
    13c0:	1a 16       	cp	r1, r26
    13c2:	f0 40       	sbci	r31, 0x00	; 0
    13c4:	a2 2f       	mov	r26, r18
    13c6:	23 2f       	mov	r18, r19
    13c8:	34 2f       	mov	r19, r20
    13ca:	44 27       	eor	r20, r20
    13cc:	58 5f       	subi	r21, 0xF8	; 248
    13ce:	f3 cf       	rjmp	.-26     	; 0x13b6 <__addsf3x+0x34>
    13d0:	46 95       	lsr	r20
    13d2:	37 95       	ror	r19
    13d4:	27 95       	ror	r18
    13d6:	a7 95       	ror	r26
    13d8:	f0 40       	sbci	r31, 0x00	; 0
    13da:	53 95       	inc	r21
    13dc:	c9 f7       	brne	.-14     	; 0x13d0 <__addsf3x+0x4e>
    13de:	7e f4       	brtc	.+30     	; 0x13fe <__addsf3x+0x7c>
    13e0:	1f 16       	cp	r1, r31
    13e2:	ba 0b       	sbc	r27, r26
    13e4:	62 0b       	sbc	r22, r18
    13e6:	73 0b       	sbc	r23, r19
    13e8:	84 0b       	sbc	r24, r20
    13ea:	ba f0       	brmi	.+46     	; 0x141a <__addsf3x+0x98>
    13ec:	91 50       	subi	r25, 0x01	; 1
    13ee:	a1 f0       	breq	.+40     	; 0x1418 <__addsf3x+0x96>
    13f0:	ff 0f       	add	r31, r31
    13f2:	bb 1f       	adc	r27, r27
    13f4:	66 1f       	adc	r22, r22
    13f6:	77 1f       	adc	r23, r23
    13f8:	88 1f       	adc	r24, r24
    13fa:	c2 f7       	brpl	.-16     	; 0x13ec <__addsf3x+0x6a>
    13fc:	0e c0       	rjmp	.+28     	; 0x141a <__addsf3x+0x98>
    13fe:	ba 0f       	add	r27, r26
    1400:	62 1f       	adc	r22, r18
    1402:	73 1f       	adc	r23, r19
    1404:	84 1f       	adc	r24, r20
    1406:	48 f4       	brcc	.+18     	; 0x141a <__addsf3x+0x98>
    1408:	87 95       	ror	r24
    140a:	77 95       	ror	r23
    140c:	67 95       	ror	r22
    140e:	b7 95       	ror	r27
    1410:	f7 95       	ror	r31
    1412:	9e 3f       	cpi	r25, 0xFE	; 254
    1414:	08 f0       	brcs	.+2      	; 0x1418 <__addsf3x+0x96>
    1416:	b3 cf       	rjmp	.-154    	; 0x137e <__addsf3+0x1e>
    1418:	93 95       	inc	r25
    141a:	88 0f       	add	r24, r24
    141c:	08 f0       	brcs	.+2      	; 0x1420 <__addsf3x+0x9e>
    141e:	99 27       	eor	r25, r25
    1420:	ee 0f       	add	r30, r30
    1422:	97 95       	ror	r25
    1424:	87 95       	ror	r24
    1426:	08 95       	ret

00001428 <__fixsfsi>:
    1428:	04 d0       	rcall	.+8      	; 0x1432 <__fixunssfsi>
    142a:	68 94       	set
    142c:	b1 11       	cpse	r27, r1
    142e:	08 c1       	rjmp	.+528    	; 0x1640 <__fp_szero>
    1430:	08 95       	ret

00001432 <__fixunssfsi>:
    1432:	d4 d0       	rcall	.+424    	; 0x15dc <__fp_splitA>
    1434:	88 f0       	brcs	.+34     	; 0x1458 <__fixunssfsi+0x26>
    1436:	9f 57       	subi	r25, 0x7F	; 127
    1438:	90 f0       	brcs	.+36     	; 0x145e <__fixunssfsi+0x2c>
    143a:	b9 2f       	mov	r27, r25
    143c:	99 27       	eor	r25, r25
    143e:	b7 51       	subi	r27, 0x17	; 23
    1440:	a0 f0       	brcs	.+40     	; 0x146a <__fixunssfsi+0x38>
    1442:	d1 f0       	breq	.+52     	; 0x1478 <__fixunssfsi+0x46>
    1444:	66 0f       	add	r22, r22
    1446:	77 1f       	adc	r23, r23
    1448:	88 1f       	adc	r24, r24
    144a:	99 1f       	adc	r25, r25
    144c:	1a f0       	brmi	.+6      	; 0x1454 <__fixunssfsi+0x22>
    144e:	ba 95       	dec	r27
    1450:	c9 f7       	brne	.-14     	; 0x1444 <__fixunssfsi+0x12>
    1452:	12 c0       	rjmp	.+36     	; 0x1478 <__fixunssfsi+0x46>
    1454:	b1 30       	cpi	r27, 0x01	; 1
    1456:	81 f0       	breq	.+32     	; 0x1478 <__fixunssfsi+0x46>
    1458:	f2 d0       	rcall	.+484    	; 0x163e <__fp_zero>
    145a:	b1 e0       	ldi	r27, 0x01	; 1
    145c:	08 95       	ret
    145e:	ef c0       	rjmp	.+478    	; 0x163e <__fp_zero>
    1460:	67 2f       	mov	r22, r23
    1462:	78 2f       	mov	r23, r24
    1464:	88 27       	eor	r24, r24
    1466:	b8 5f       	subi	r27, 0xF8	; 248
    1468:	39 f0       	breq	.+14     	; 0x1478 <__fixunssfsi+0x46>
    146a:	b9 3f       	cpi	r27, 0xF9	; 249
    146c:	cc f3       	brlt	.-14     	; 0x1460 <__fixunssfsi+0x2e>
    146e:	86 95       	lsr	r24
    1470:	77 95       	ror	r23
    1472:	67 95       	ror	r22
    1474:	b3 95       	inc	r27
    1476:	d9 f7       	brne	.-10     	; 0x146e <__fixunssfsi+0x3c>
    1478:	3e f4       	brtc	.+14     	; 0x1488 <__fixunssfsi+0x56>
    147a:	90 95       	com	r25
    147c:	80 95       	com	r24
    147e:	70 95       	com	r23
    1480:	61 95       	neg	r22
    1482:	7f 4f       	sbci	r23, 0xFF	; 255
    1484:	8f 4f       	sbci	r24, 0xFF	; 255
    1486:	9f 4f       	sbci	r25, 0xFF	; 255
    1488:	08 95       	ret

0000148a <__floatunsisf>:
    148a:	e8 94       	clt
    148c:	09 c0       	rjmp	.+18     	; 0x14a0 <__floatsisf+0x12>

0000148e <__floatsisf>:
    148e:	97 fb       	bst	r25, 7
    1490:	3e f4       	brtc	.+14     	; 0x14a0 <__floatsisf+0x12>
    1492:	90 95       	com	r25
    1494:	80 95       	com	r24
    1496:	70 95       	com	r23
    1498:	61 95       	neg	r22
    149a:	7f 4f       	sbci	r23, 0xFF	; 255
    149c:	8f 4f       	sbci	r24, 0xFF	; 255
    149e:	9f 4f       	sbci	r25, 0xFF	; 255
    14a0:	99 23       	and	r25, r25
    14a2:	a9 f0       	breq	.+42     	; 0x14ce <__floatsisf+0x40>
    14a4:	f9 2f       	mov	r31, r25
    14a6:	96 e9       	ldi	r25, 0x96	; 150
    14a8:	bb 27       	eor	r27, r27
    14aa:	93 95       	inc	r25
    14ac:	f6 95       	lsr	r31
    14ae:	87 95       	ror	r24
    14b0:	77 95       	ror	r23
    14b2:	67 95       	ror	r22
    14b4:	b7 95       	ror	r27
    14b6:	f1 11       	cpse	r31, r1
    14b8:	f8 cf       	rjmp	.-16     	; 0x14aa <__floatsisf+0x1c>
    14ba:	fa f4       	brpl	.+62     	; 0x14fa <__floatsisf+0x6c>
    14bc:	bb 0f       	add	r27, r27
    14be:	11 f4       	brne	.+4      	; 0x14c4 <__floatsisf+0x36>
    14c0:	60 ff       	sbrs	r22, 0
    14c2:	1b c0       	rjmp	.+54     	; 0x14fa <__floatsisf+0x6c>
    14c4:	6f 5f       	subi	r22, 0xFF	; 255
    14c6:	7f 4f       	sbci	r23, 0xFF	; 255
    14c8:	8f 4f       	sbci	r24, 0xFF	; 255
    14ca:	9f 4f       	sbci	r25, 0xFF	; 255
    14cc:	16 c0       	rjmp	.+44     	; 0x14fa <__floatsisf+0x6c>
    14ce:	88 23       	and	r24, r24
    14d0:	11 f0       	breq	.+4      	; 0x14d6 <__floatsisf+0x48>
    14d2:	96 e9       	ldi	r25, 0x96	; 150
    14d4:	11 c0       	rjmp	.+34     	; 0x14f8 <__floatsisf+0x6a>
    14d6:	77 23       	and	r23, r23
    14d8:	21 f0       	breq	.+8      	; 0x14e2 <__floatsisf+0x54>
    14da:	9e e8       	ldi	r25, 0x8E	; 142
    14dc:	87 2f       	mov	r24, r23
    14de:	76 2f       	mov	r23, r22
    14e0:	05 c0       	rjmp	.+10     	; 0x14ec <__floatsisf+0x5e>
    14e2:	66 23       	and	r22, r22
    14e4:	71 f0       	breq	.+28     	; 0x1502 <__floatsisf+0x74>
    14e6:	96 e8       	ldi	r25, 0x86	; 134
    14e8:	86 2f       	mov	r24, r22
    14ea:	70 e0       	ldi	r23, 0x00	; 0
    14ec:	60 e0       	ldi	r22, 0x00	; 0
    14ee:	2a f0       	brmi	.+10     	; 0x14fa <__floatsisf+0x6c>
    14f0:	9a 95       	dec	r25
    14f2:	66 0f       	add	r22, r22
    14f4:	77 1f       	adc	r23, r23
    14f6:	88 1f       	adc	r24, r24
    14f8:	da f7       	brpl	.-10     	; 0x14f0 <__floatsisf+0x62>
    14fa:	88 0f       	add	r24, r24
    14fc:	96 95       	lsr	r25
    14fe:	87 95       	ror	r24
    1500:	97 f9       	bld	r25, 7
    1502:	08 95       	ret

00001504 <floor>:
    1504:	85 d0       	rcall	.+266    	; 0x1610 <__fp_trunc>
    1506:	80 f0       	brcs	.+32     	; 0x1528 <floor+0x24>
    1508:	9f 37       	cpi	r25, 0x7F	; 127
    150a:	40 f4       	brcc	.+16     	; 0x151c <floor+0x18>
    150c:	91 11       	cpse	r25, r1
    150e:	0e f0       	brts	.+2      	; 0x1512 <floor+0xe>
    1510:	97 c0       	rjmp	.+302    	; 0x1640 <__fp_szero>
    1512:	60 e0       	ldi	r22, 0x00	; 0
    1514:	70 e0       	ldi	r23, 0x00	; 0
    1516:	80 e8       	ldi	r24, 0x80	; 128
    1518:	9f eb       	ldi	r25, 0xBF	; 191
    151a:	08 95       	ret
    151c:	26 f4       	brtc	.+8      	; 0x1526 <floor+0x22>
    151e:	1b 16       	cp	r1, r27
    1520:	61 1d       	adc	r22, r1
    1522:	71 1d       	adc	r23, r1
    1524:	81 1d       	adc	r24, r1
    1526:	07 c0       	rjmp	.+14     	; 0x1536 <__fp_mintl>
    1528:	21 c0       	rjmp	.+66     	; 0x156c <__fp_mpack>

0000152a <__fp_inf>:
    152a:	97 f9       	bld	r25, 7
    152c:	9f 67       	ori	r25, 0x7F	; 127
    152e:	80 e8       	ldi	r24, 0x80	; 128
    1530:	70 e0       	ldi	r23, 0x00	; 0
    1532:	60 e0       	ldi	r22, 0x00	; 0
    1534:	08 95       	ret

00001536 <__fp_mintl>:
    1536:	88 23       	and	r24, r24
    1538:	71 f4       	brne	.+28     	; 0x1556 <__fp_mintl+0x20>
    153a:	77 23       	and	r23, r23
    153c:	21 f0       	breq	.+8      	; 0x1546 <__fp_mintl+0x10>
    153e:	98 50       	subi	r25, 0x08	; 8
    1540:	87 2b       	or	r24, r23
    1542:	76 2f       	mov	r23, r22
    1544:	07 c0       	rjmp	.+14     	; 0x1554 <__fp_mintl+0x1e>
    1546:	66 23       	and	r22, r22
    1548:	11 f4       	brne	.+4      	; 0x154e <__fp_mintl+0x18>
    154a:	99 27       	eor	r25, r25
    154c:	0d c0       	rjmp	.+26     	; 0x1568 <__fp_mintl+0x32>
    154e:	90 51       	subi	r25, 0x10	; 16
    1550:	86 2b       	or	r24, r22
    1552:	70 e0       	ldi	r23, 0x00	; 0
    1554:	60 e0       	ldi	r22, 0x00	; 0
    1556:	2a f0       	brmi	.+10     	; 0x1562 <__fp_mintl+0x2c>
    1558:	9a 95       	dec	r25
    155a:	66 0f       	add	r22, r22
    155c:	77 1f       	adc	r23, r23
    155e:	88 1f       	adc	r24, r24
    1560:	da f7       	brpl	.-10     	; 0x1558 <__fp_mintl+0x22>
    1562:	88 0f       	add	r24, r24
    1564:	96 95       	lsr	r25
    1566:	87 95       	ror	r24
    1568:	97 f9       	bld	r25, 7
    156a:	08 95       	ret

0000156c <__fp_mpack>:
    156c:	9f 3f       	cpi	r25, 0xFF	; 255
    156e:	31 f0       	breq	.+12     	; 0x157c <__fp_mpack_finite+0xc>

00001570 <__fp_mpack_finite>:
    1570:	91 50       	subi	r25, 0x01	; 1
    1572:	20 f4       	brcc	.+8      	; 0x157c <__fp_mpack_finite+0xc>
    1574:	87 95       	ror	r24
    1576:	77 95       	ror	r23
    1578:	67 95       	ror	r22
    157a:	b7 95       	ror	r27
    157c:	88 0f       	add	r24, r24
    157e:	91 1d       	adc	r25, r1
    1580:	96 95       	lsr	r25
    1582:	87 95       	ror	r24
    1584:	97 f9       	bld	r25, 7
    1586:	08 95       	ret

00001588 <__fp_nan>:
    1588:	9f ef       	ldi	r25, 0xFF	; 255
    158a:	80 ec       	ldi	r24, 0xC0	; 192
    158c:	08 95       	ret

0000158e <__fp_pscA>:
    158e:	00 24       	eor	r0, r0
    1590:	0a 94       	dec	r0
    1592:	16 16       	cp	r1, r22
    1594:	17 06       	cpc	r1, r23
    1596:	18 06       	cpc	r1, r24
    1598:	09 06       	cpc	r0, r25
    159a:	08 95       	ret

0000159c <__fp_pscB>:
    159c:	00 24       	eor	r0, r0
    159e:	0a 94       	dec	r0
    15a0:	12 16       	cp	r1, r18
    15a2:	13 06       	cpc	r1, r19
    15a4:	14 06       	cpc	r1, r20
    15a6:	05 06       	cpc	r0, r21
    15a8:	08 95       	ret

000015aa <__fp_round>:
    15aa:	09 2e       	mov	r0, r25
    15ac:	03 94       	inc	r0
    15ae:	00 0c       	add	r0, r0
    15b0:	11 f4       	brne	.+4      	; 0x15b6 <__fp_round+0xc>
    15b2:	88 23       	and	r24, r24
    15b4:	52 f0       	brmi	.+20     	; 0x15ca <__fp_round+0x20>
    15b6:	bb 0f       	add	r27, r27
    15b8:	40 f4       	brcc	.+16     	; 0x15ca <__fp_round+0x20>
    15ba:	bf 2b       	or	r27, r31
    15bc:	11 f4       	brne	.+4      	; 0x15c2 <__fp_round+0x18>
    15be:	60 ff       	sbrs	r22, 0
    15c0:	04 c0       	rjmp	.+8      	; 0x15ca <__fp_round+0x20>
    15c2:	6f 5f       	subi	r22, 0xFF	; 255
    15c4:	7f 4f       	sbci	r23, 0xFF	; 255
    15c6:	8f 4f       	sbci	r24, 0xFF	; 255
    15c8:	9f 4f       	sbci	r25, 0xFF	; 255
    15ca:	08 95       	ret

000015cc <__fp_split3>:
    15cc:	57 fd       	sbrc	r21, 7
    15ce:	90 58       	subi	r25, 0x80	; 128
    15d0:	44 0f       	add	r20, r20
    15d2:	55 1f       	adc	r21, r21
    15d4:	59 f0       	breq	.+22     	; 0x15ec <__fp_splitA+0x10>
    15d6:	5f 3f       	cpi	r21, 0xFF	; 255
    15d8:	71 f0       	breq	.+28     	; 0x15f6 <__fp_splitA+0x1a>
    15da:	47 95       	ror	r20

000015dc <__fp_splitA>:
    15dc:	88 0f       	add	r24, r24
    15de:	97 fb       	bst	r25, 7
    15e0:	99 1f       	adc	r25, r25
    15e2:	61 f0       	breq	.+24     	; 0x15fc <__fp_splitA+0x20>
    15e4:	9f 3f       	cpi	r25, 0xFF	; 255
    15e6:	79 f0       	breq	.+30     	; 0x1606 <__fp_splitA+0x2a>
    15e8:	87 95       	ror	r24
    15ea:	08 95       	ret
    15ec:	12 16       	cp	r1, r18
    15ee:	13 06       	cpc	r1, r19
    15f0:	14 06       	cpc	r1, r20
    15f2:	55 1f       	adc	r21, r21
    15f4:	f2 cf       	rjmp	.-28     	; 0x15da <__fp_split3+0xe>
    15f6:	46 95       	lsr	r20
    15f8:	f1 df       	rcall	.-30     	; 0x15dc <__fp_splitA>
    15fa:	08 c0       	rjmp	.+16     	; 0x160c <__fp_splitA+0x30>
    15fc:	16 16       	cp	r1, r22
    15fe:	17 06       	cpc	r1, r23
    1600:	18 06       	cpc	r1, r24
    1602:	99 1f       	adc	r25, r25
    1604:	f1 cf       	rjmp	.-30     	; 0x15e8 <__fp_splitA+0xc>
    1606:	86 95       	lsr	r24
    1608:	71 05       	cpc	r23, r1
    160a:	61 05       	cpc	r22, r1
    160c:	08 94       	sec
    160e:	08 95       	ret

00001610 <__fp_trunc>:
    1610:	e5 df       	rcall	.-54     	; 0x15dc <__fp_splitA>
    1612:	a0 f0       	brcs	.+40     	; 0x163c <__fp_trunc+0x2c>
    1614:	be e7       	ldi	r27, 0x7E	; 126
    1616:	b9 17       	cp	r27, r25
    1618:	88 f4       	brcc	.+34     	; 0x163c <__fp_trunc+0x2c>
    161a:	bb 27       	eor	r27, r27
    161c:	9f 38       	cpi	r25, 0x8F	; 143
    161e:	60 f4       	brcc	.+24     	; 0x1638 <__fp_trunc+0x28>
    1620:	16 16       	cp	r1, r22
    1622:	b1 1d       	adc	r27, r1
    1624:	67 2f       	mov	r22, r23
    1626:	78 2f       	mov	r23, r24
    1628:	88 27       	eor	r24, r24
    162a:	98 5f       	subi	r25, 0xF8	; 248
    162c:	f7 cf       	rjmp	.-18     	; 0x161c <__fp_trunc+0xc>
    162e:	86 95       	lsr	r24
    1630:	77 95       	ror	r23
    1632:	67 95       	ror	r22
    1634:	b1 1d       	adc	r27, r1
    1636:	93 95       	inc	r25
    1638:	96 39       	cpi	r25, 0x96	; 150
    163a:	c8 f3       	brcs	.-14     	; 0x162e <__fp_trunc+0x1e>
    163c:	08 95       	ret

0000163e <__fp_zero>:
    163e:	e8 94       	clt

00001640 <__fp_szero>:
    1640:	bb 27       	eor	r27, r27
    1642:	66 27       	eor	r22, r22
    1644:	77 27       	eor	r23, r23
    1646:	cb 01       	movw	r24, r22
    1648:	97 f9       	bld	r25, 7
    164a:	08 95       	ret

0000164c <log10>:
    164c:	0a d0       	rcall	.+20     	; 0x1662 <log>
    164e:	29 ed       	ldi	r18, 0xD9	; 217
    1650:	3b e5       	ldi	r19, 0x5B	; 91
    1652:	4e ed       	ldi	r20, 0xDE	; 222
    1654:	5e e3       	ldi	r21, 0x3E	; 62
    1656:	45 c0       	rjmp	.+138    	; 0x16e2 <__mulsf3>
    1658:	0e f0       	brts	.+2      	; 0x165c <log10+0x10>
    165a:	88 cf       	rjmp	.-240    	; 0x156c <__fp_mpack>
    165c:	95 cf       	rjmp	.-214    	; 0x1588 <__fp_nan>
    165e:	68 94       	set
    1660:	64 cf       	rjmp	.-312    	; 0x152a <__fp_inf>

00001662 <log>:
    1662:	bc df       	rcall	.-136    	; 0x15dc <__fp_splitA>
    1664:	c8 f3       	brcs	.-14     	; 0x1658 <log10+0xc>
    1666:	99 23       	and	r25, r25
    1668:	d1 f3       	breq	.-12     	; 0x165e <log10+0x12>
    166a:	c6 f3       	brts	.-16     	; 0x165c <log10+0x10>
    166c:	df 93       	push	r29
    166e:	cf 93       	push	r28
    1670:	1f 93       	push	r17
    1672:	0f 93       	push	r16
    1674:	ff 92       	push	r15
    1676:	c9 2f       	mov	r28, r25
    1678:	dd 27       	eor	r29, r29
    167a:	88 23       	and	r24, r24
    167c:	2a f0       	brmi	.+10     	; 0x1688 <log+0x26>
    167e:	21 97       	sbiw	r28, 0x01	; 1
    1680:	66 0f       	add	r22, r22
    1682:	77 1f       	adc	r23, r23
    1684:	88 1f       	adc	r24, r24
    1686:	da f7       	brpl	.-10     	; 0x167e <log+0x1c>
    1688:	20 e0       	ldi	r18, 0x00	; 0
    168a:	30 e0       	ldi	r19, 0x00	; 0
    168c:	40 e8       	ldi	r20, 0x80	; 128
    168e:	5f eb       	ldi	r21, 0xBF	; 191
    1690:	9f e3       	ldi	r25, 0x3F	; 63
    1692:	88 39       	cpi	r24, 0x98	; 152
    1694:	20 f0       	brcs	.+8      	; 0x169e <log+0x3c>
    1696:	80 3e       	cpi	r24, 0xE0	; 224
    1698:	30 f0       	brcs	.+12     	; 0x16a6 <log+0x44>
    169a:	21 96       	adiw	r28, 0x01	; 1
    169c:	8f 77       	andi	r24, 0x7F	; 127
    169e:	60 de       	rcall	.-832    	; 0x1360 <__addsf3>
    16a0:	e0 e7       	ldi	r30, 0x70	; 112
    16a2:	f0 e0       	ldi	r31, 0x00	; 0
    16a4:	03 c0       	rjmp	.+6      	; 0x16ac <log+0x4a>
    16a6:	5c de       	rcall	.-840    	; 0x1360 <__addsf3>
    16a8:	ed e9       	ldi	r30, 0x9D	; 157
    16aa:	f0 e0       	ldi	r31, 0x00	; 0
    16ac:	7d d0       	rcall	.+250    	; 0x17a8 <__fp_powser>
    16ae:	8b 01       	movw	r16, r22
    16b0:	be 01       	movw	r22, r28
    16b2:	ec 01       	movw	r28, r24
    16b4:	fb 2e       	mov	r15, r27
    16b6:	6f 57       	subi	r22, 0x7F	; 127
    16b8:	71 09       	sbc	r23, r1
    16ba:	75 95       	asr	r23
    16bc:	77 1f       	adc	r23, r23
    16be:	88 0b       	sbc	r24, r24
    16c0:	99 0b       	sbc	r25, r25
    16c2:	e5 de       	rcall	.-566    	; 0x148e <__floatsisf>
    16c4:	28 e1       	ldi	r18, 0x18	; 24
    16c6:	32 e7       	ldi	r19, 0x72	; 114
    16c8:	41 e3       	ldi	r20, 0x31	; 49
    16ca:	5f e3       	ldi	r21, 0x3F	; 63
    16cc:	16 d0       	rcall	.+44     	; 0x16fa <__mulsf3x>
    16ce:	af 2d       	mov	r26, r15
    16d0:	98 01       	movw	r18, r16
    16d2:	ae 01       	movw	r20, r28
    16d4:	ff 90       	pop	r15
    16d6:	0f 91       	pop	r16
    16d8:	1f 91       	pop	r17
    16da:	cf 91       	pop	r28
    16dc:	df 91       	pop	r29
    16de:	51 de       	rcall	.-862    	; 0x1382 <__addsf3x>
    16e0:	64 cf       	rjmp	.-312    	; 0x15aa <__fp_round>

000016e2 <__mulsf3>:
    16e2:	0b d0       	rcall	.+22     	; 0x16fa <__mulsf3x>
    16e4:	62 cf       	rjmp	.-316    	; 0x15aa <__fp_round>
    16e6:	53 df       	rcall	.-346    	; 0x158e <__fp_pscA>
    16e8:	28 f0       	brcs	.+10     	; 0x16f4 <__mulsf3+0x12>
    16ea:	58 df       	rcall	.-336    	; 0x159c <__fp_pscB>
    16ec:	18 f0       	brcs	.+6      	; 0x16f4 <__mulsf3+0x12>
    16ee:	95 23       	and	r25, r21
    16f0:	09 f0       	breq	.+2      	; 0x16f4 <__mulsf3+0x12>
    16f2:	1b cf       	rjmp	.-458    	; 0x152a <__fp_inf>
    16f4:	49 cf       	rjmp	.-366    	; 0x1588 <__fp_nan>
    16f6:	11 24       	eor	r1, r1
    16f8:	a3 cf       	rjmp	.-186    	; 0x1640 <__fp_szero>

000016fa <__mulsf3x>:
    16fa:	68 df       	rcall	.-304    	; 0x15cc <__fp_split3>
    16fc:	a0 f3       	brcs	.-24     	; 0x16e6 <__mulsf3+0x4>

000016fe <__mulsf3_pse>:
    16fe:	95 9f       	mul	r25, r21
    1700:	d1 f3       	breq	.-12     	; 0x16f6 <__mulsf3+0x14>
    1702:	95 0f       	add	r25, r21
    1704:	50 e0       	ldi	r21, 0x00	; 0
    1706:	55 1f       	adc	r21, r21
    1708:	62 9f       	mul	r22, r18
    170a:	f0 01       	movw	r30, r0
    170c:	72 9f       	mul	r23, r18
    170e:	bb 27       	eor	r27, r27
    1710:	f0 0d       	add	r31, r0
    1712:	b1 1d       	adc	r27, r1
    1714:	63 9f       	mul	r22, r19
    1716:	aa 27       	eor	r26, r26
    1718:	f0 0d       	add	r31, r0
    171a:	b1 1d       	adc	r27, r1
    171c:	aa 1f       	adc	r26, r26
    171e:	64 9f       	mul	r22, r20
    1720:	66 27       	eor	r22, r22
    1722:	b0 0d       	add	r27, r0
    1724:	a1 1d       	adc	r26, r1
    1726:	66 1f       	adc	r22, r22
    1728:	82 9f       	mul	r24, r18
    172a:	22 27       	eor	r18, r18
    172c:	b0 0d       	add	r27, r0
    172e:	a1 1d       	adc	r26, r1
    1730:	62 1f       	adc	r22, r18
    1732:	73 9f       	mul	r23, r19
    1734:	b0 0d       	add	r27, r0
    1736:	a1 1d       	adc	r26, r1
    1738:	62 1f       	adc	r22, r18
    173a:	83 9f       	mul	r24, r19
    173c:	a0 0d       	add	r26, r0
    173e:	61 1d       	adc	r22, r1
    1740:	22 1f       	adc	r18, r18
    1742:	74 9f       	mul	r23, r20
    1744:	33 27       	eor	r19, r19
    1746:	a0 0d       	add	r26, r0
    1748:	61 1d       	adc	r22, r1
    174a:	23 1f       	adc	r18, r19
    174c:	84 9f       	mul	r24, r20
    174e:	60 0d       	add	r22, r0
    1750:	21 1d       	adc	r18, r1
    1752:	82 2f       	mov	r24, r18
    1754:	76 2f       	mov	r23, r22
    1756:	6a 2f       	mov	r22, r26
    1758:	11 24       	eor	r1, r1
    175a:	9f 57       	subi	r25, 0x7F	; 127
    175c:	50 40       	sbci	r21, 0x00	; 0
    175e:	8a f0       	brmi	.+34     	; 0x1782 <__mulsf3_pse+0x84>
    1760:	e1 f0       	breq	.+56     	; 0x179a <__mulsf3_pse+0x9c>
    1762:	88 23       	and	r24, r24
    1764:	4a f0       	brmi	.+18     	; 0x1778 <__mulsf3_pse+0x7a>
    1766:	ee 0f       	add	r30, r30
    1768:	ff 1f       	adc	r31, r31
    176a:	bb 1f       	adc	r27, r27
    176c:	66 1f       	adc	r22, r22
    176e:	77 1f       	adc	r23, r23
    1770:	88 1f       	adc	r24, r24
    1772:	91 50       	subi	r25, 0x01	; 1
    1774:	50 40       	sbci	r21, 0x00	; 0
    1776:	a9 f7       	brne	.-22     	; 0x1762 <__mulsf3_pse+0x64>
    1778:	9e 3f       	cpi	r25, 0xFE	; 254
    177a:	51 05       	cpc	r21, r1
    177c:	70 f0       	brcs	.+28     	; 0x179a <__mulsf3_pse+0x9c>
    177e:	d5 ce       	rjmp	.-598    	; 0x152a <__fp_inf>
    1780:	5f cf       	rjmp	.-322    	; 0x1640 <__fp_szero>
    1782:	5f 3f       	cpi	r21, 0xFF	; 255
    1784:	ec f3       	brlt	.-6      	; 0x1780 <__mulsf3_pse+0x82>
    1786:	98 3e       	cpi	r25, 0xE8	; 232
    1788:	dc f3       	brlt	.-10     	; 0x1780 <__mulsf3_pse+0x82>
    178a:	86 95       	lsr	r24
    178c:	77 95       	ror	r23
    178e:	67 95       	ror	r22
    1790:	b7 95       	ror	r27
    1792:	f7 95       	ror	r31
    1794:	e7 95       	ror	r30
    1796:	9f 5f       	subi	r25, 0xFF	; 255
    1798:	c1 f7       	brne	.-16     	; 0x178a <__mulsf3_pse+0x8c>
    179a:	fe 2b       	or	r31, r30
    179c:	88 0f       	add	r24, r24
    179e:	91 1d       	adc	r25, r1
    17a0:	96 95       	lsr	r25
    17a2:	87 95       	ror	r24
    17a4:	97 f9       	bld	r25, 7
    17a6:	08 95       	ret

000017a8 <__fp_powser>:
    17a8:	df 93       	push	r29
    17aa:	cf 93       	push	r28
    17ac:	1f 93       	push	r17
    17ae:	0f 93       	push	r16
    17b0:	ff 92       	push	r15
    17b2:	ef 92       	push	r14
    17b4:	df 92       	push	r13
    17b6:	7b 01       	movw	r14, r22
    17b8:	8c 01       	movw	r16, r24
    17ba:	68 94       	set
    17bc:	05 c0       	rjmp	.+10     	; 0x17c8 <__fp_powser+0x20>
    17be:	da 2e       	mov	r13, r26
    17c0:	ef 01       	movw	r28, r30
    17c2:	9b df       	rcall	.-202    	; 0x16fa <__mulsf3x>
    17c4:	fe 01       	movw	r30, r28
    17c6:	e8 94       	clt
    17c8:	a5 91       	lpm	r26, Z+
    17ca:	25 91       	lpm	r18, Z+
    17cc:	35 91       	lpm	r19, Z+
    17ce:	45 91       	lpm	r20, Z+
    17d0:	55 91       	lpm	r21, Z+
    17d2:	ae f3       	brts	.-22     	; 0x17be <__fp_powser+0x16>
    17d4:	ef 01       	movw	r28, r30
    17d6:	d5 dd       	rcall	.-1110   	; 0x1382 <__addsf3x>
    17d8:	fe 01       	movw	r30, r28
    17da:	97 01       	movw	r18, r14
    17dc:	a8 01       	movw	r20, r16
    17de:	da 94       	dec	r13
    17e0:	79 f7       	brne	.-34     	; 0x17c0 <__fp_powser+0x18>
    17e2:	df 90       	pop	r13
    17e4:	ef 90       	pop	r14
    17e6:	ff 90       	pop	r15
    17e8:	0f 91       	pop	r16
    17ea:	1f 91       	pop	r17
    17ec:	cf 91       	pop	r28
    17ee:	df 91       	pop	r29
    17f0:	08 95       	ret

000017f2 <__divmodhi4>:
    17f2:	97 fb       	bst	r25, 7
    17f4:	07 2e       	mov	r0, r23
    17f6:	16 f4       	brtc	.+4      	; 0x17fc <__divmodhi4+0xa>
    17f8:	00 94       	com	r0
    17fa:	06 d0       	rcall	.+12     	; 0x1808 <__divmodhi4_neg1>
    17fc:	77 fd       	sbrc	r23, 7
    17fe:	08 d0       	rcall	.+16     	; 0x1810 <__divmodhi4_neg2>
    1800:	0b d0       	rcall	.+22     	; 0x1818 <__udivmodhi4>
    1802:	07 fc       	sbrc	r0, 7
    1804:	05 d0       	rcall	.+10     	; 0x1810 <__divmodhi4_neg2>
    1806:	3e f4       	brtc	.+14     	; 0x1816 <__divmodhi4_exit>

00001808 <__divmodhi4_neg1>:
    1808:	90 95       	com	r25
    180a:	81 95       	neg	r24
    180c:	9f 4f       	sbci	r25, 0xFF	; 255
    180e:	08 95       	ret

00001810 <__divmodhi4_neg2>:
    1810:	70 95       	com	r23
    1812:	61 95       	neg	r22
    1814:	7f 4f       	sbci	r23, 0xFF	; 255

00001816 <__divmodhi4_exit>:
    1816:	08 95       	ret

00001818 <__udivmodhi4>:
    1818:	aa 1b       	sub	r26, r26
    181a:	bb 1b       	sub	r27, r27
    181c:	51 e1       	ldi	r21, 0x11	; 17
    181e:	07 c0       	rjmp	.+14     	; 0x182e <__udivmodhi4_ep>

00001820 <__udivmodhi4_loop>:
    1820:	aa 1f       	adc	r26, r26
    1822:	bb 1f       	adc	r27, r27
    1824:	a6 17       	cp	r26, r22
    1826:	b7 07       	cpc	r27, r23
    1828:	10 f0       	brcs	.+4      	; 0x182e <__udivmodhi4_ep>
    182a:	a6 1b       	sub	r26, r22
    182c:	b7 0b       	sbc	r27, r23

0000182e <__udivmodhi4_ep>:
    182e:	88 1f       	adc	r24, r24
    1830:	99 1f       	adc	r25, r25
    1832:	5a 95       	dec	r21
    1834:	a9 f7       	brne	.-22     	; 0x1820 <__udivmodhi4_loop>
    1836:	80 95       	com	r24
    1838:	90 95       	com	r25
    183a:	bc 01       	movw	r22, r24
    183c:	cd 01       	movw	r24, r26
    183e:	08 95       	ret

00001840 <malloc>:
    1840:	cf 93       	push	r28
    1842:	df 93       	push	r29
    1844:	82 30       	cpi	r24, 0x02	; 2
    1846:	91 05       	cpc	r25, r1
    1848:	10 f4       	brcc	.+4      	; 0x184e <malloc+0xe>
    184a:	82 e0       	ldi	r24, 0x02	; 2
    184c:	90 e0       	ldi	r25, 0x00	; 0
    184e:	e0 91 57 02 	lds	r30, 0x0257
    1852:	f0 91 58 02 	lds	r31, 0x0258
    1856:	20 e0       	ldi	r18, 0x00	; 0
    1858:	30 e0       	ldi	r19, 0x00	; 0
    185a:	a0 e0       	ldi	r26, 0x00	; 0
    185c:	b0 e0       	ldi	r27, 0x00	; 0
    185e:	30 97       	sbiw	r30, 0x00	; 0
    1860:	39 f1       	breq	.+78     	; 0x18b0 <malloc+0x70>
    1862:	40 81       	ld	r20, Z
    1864:	51 81       	ldd	r21, Z+1	; 0x01
    1866:	48 17       	cp	r20, r24
    1868:	59 07       	cpc	r21, r25
    186a:	b8 f0       	brcs	.+46     	; 0x189a <malloc+0x5a>
    186c:	48 17       	cp	r20, r24
    186e:	59 07       	cpc	r21, r25
    1870:	71 f4       	brne	.+28     	; 0x188e <malloc+0x4e>
    1872:	82 81       	ldd	r24, Z+2	; 0x02
    1874:	93 81       	ldd	r25, Z+3	; 0x03
    1876:	10 97       	sbiw	r26, 0x00	; 0
    1878:	29 f0       	breq	.+10     	; 0x1884 <malloc+0x44>
    187a:	13 96       	adiw	r26, 0x03	; 3
    187c:	9c 93       	st	X, r25
    187e:	8e 93       	st	-X, r24
    1880:	12 97       	sbiw	r26, 0x02	; 2
    1882:	2c c0       	rjmp	.+88     	; 0x18dc <malloc+0x9c>
    1884:	90 93 58 02 	sts	0x0258, r25
    1888:	80 93 57 02 	sts	0x0257, r24
    188c:	27 c0       	rjmp	.+78     	; 0x18dc <malloc+0x9c>
    188e:	21 15       	cp	r18, r1
    1890:	31 05       	cpc	r19, r1
    1892:	31 f0       	breq	.+12     	; 0x18a0 <malloc+0x60>
    1894:	42 17       	cp	r20, r18
    1896:	53 07       	cpc	r21, r19
    1898:	18 f0       	brcs	.+6      	; 0x18a0 <malloc+0x60>
    189a:	a9 01       	movw	r20, r18
    189c:	db 01       	movw	r26, r22
    189e:	01 c0       	rjmp	.+2      	; 0x18a2 <malloc+0x62>
    18a0:	ef 01       	movw	r28, r30
    18a2:	9a 01       	movw	r18, r20
    18a4:	bd 01       	movw	r22, r26
    18a6:	df 01       	movw	r26, r30
    18a8:	02 80       	ldd	r0, Z+2	; 0x02
    18aa:	f3 81       	ldd	r31, Z+3	; 0x03
    18ac:	e0 2d       	mov	r30, r0
    18ae:	d7 cf       	rjmp	.-82     	; 0x185e <malloc+0x1e>
    18b0:	21 15       	cp	r18, r1
    18b2:	31 05       	cpc	r19, r1
    18b4:	f9 f0       	breq	.+62     	; 0x18f4 <malloc+0xb4>
    18b6:	28 1b       	sub	r18, r24
    18b8:	39 0b       	sbc	r19, r25
    18ba:	24 30       	cpi	r18, 0x04	; 4
    18bc:	31 05       	cpc	r19, r1
    18be:	80 f4       	brcc	.+32     	; 0x18e0 <malloc+0xa0>
    18c0:	8a 81       	ldd	r24, Y+2	; 0x02
    18c2:	9b 81       	ldd	r25, Y+3	; 0x03
    18c4:	61 15       	cp	r22, r1
    18c6:	71 05       	cpc	r23, r1
    18c8:	21 f0       	breq	.+8      	; 0x18d2 <malloc+0x92>
    18ca:	fb 01       	movw	r30, r22
    18cc:	93 83       	std	Z+3, r25	; 0x03
    18ce:	82 83       	std	Z+2, r24	; 0x02
    18d0:	04 c0       	rjmp	.+8      	; 0x18da <malloc+0x9a>
    18d2:	90 93 58 02 	sts	0x0258, r25
    18d6:	80 93 57 02 	sts	0x0257, r24
    18da:	fe 01       	movw	r30, r28
    18dc:	32 96       	adiw	r30, 0x02	; 2
    18de:	44 c0       	rjmp	.+136    	; 0x1968 <malloc+0x128>
    18e0:	fe 01       	movw	r30, r28
    18e2:	e2 0f       	add	r30, r18
    18e4:	f3 1f       	adc	r31, r19
    18e6:	81 93       	st	Z+, r24
    18e8:	91 93       	st	Z+, r25
    18ea:	22 50       	subi	r18, 0x02	; 2
    18ec:	31 09       	sbc	r19, r1
    18ee:	39 83       	std	Y+1, r19	; 0x01
    18f0:	28 83       	st	Y, r18
    18f2:	3a c0       	rjmp	.+116    	; 0x1968 <malloc+0x128>
    18f4:	20 91 55 02 	lds	r18, 0x0255
    18f8:	30 91 56 02 	lds	r19, 0x0256
    18fc:	23 2b       	or	r18, r19
    18fe:	41 f4       	brne	.+16     	; 0x1910 <malloc+0xd0>
    1900:	20 91 02 01 	lds	r18, 0x0102
    1904:	30 91 03 01 	lds	r19, 0x0103
    1908:	30 93 56 02 	sts	0x0256, r19
    190c:	20 93 55 02 	sts	0x0255, r18
    1910:	20 91 00 01 	lds	r18, 0x0100
    1914:	30 91 01 01 	lds	r19, 0x0101
    1918:	21 15       	cp	r18, r1
    191a:	31 05       	cpc	r19, r1
    191c:	41 f4       	brne	.+16     	; 0x192e <malloc+0xee>
    191e:	2d b7       	in	r18, 0x3d	; 61
    1920:	3e b7       	in	r19, 0x3e	; 62
    1922:	40 91 04 01 	lds	r20, 0x0104
    1926:	50 91 05 01 	lds	r21, 0x0105
    192a:	24 1b       	sub	r18, r20
    192c:	35 0b       	sbc	r19, r21
    192e:	e0 91 55 02 	lds	r30, 0x0255
    1932:	f0 91 56 02 	lds	r31, 0x0256
    1936:	e2 17       	cp	r30, r18
    1938:	f3 07       	cpc	r31, r19
    193a:	a0 f4       	brcc	.+40     	; 0x1964 <malloc+0x124>
    193c:	2e 1b       	sub	r18, r30
    193e:	3f 0b       	sbc	r19, r31
    1940:	28 17       	cp	r18, r24
    1942:	39 07       	cpc	r19, r25
    1944:	78 f0       	brcs	.+30     	; 0x1964 <malloc+0x124>
    1946:	ac 01       	movw	r20, r24
    1948:	4e 5f       	subi	r20, 0xFE	; 254
    194a:	5f 4f       	sbci	r21, 0xFF	; 255
    194c:	24 17       	cp	r18, r20
    194e:	35 07       	cpc	r19, r21
    1950:	48 f0       	brcs	.+18     	; 0x1964 <malloc+0x124>
    1952:	4e 0f       	add	r20, r30
    1954:	5f 1f       	adc	r21, r31
    1956:	50 93 56 02 	sts	0x0256, r21
    195a:	40 93 55 02 	sts	0x0255, r20
    195e:	81 93       	st	Z+, r24
    1960:	91 93       	st	Z+, r25
    1962:	02 c0       	rjmp	.+4      	; 0x1968 <malloc+0x128>
    1964:	e0 e0       	ldi	r30, 0x00	; 0
    1966:	f0 e0       	ldi	r31, 0x00	; 0
    1968:	cf 01       	movw	r24, r30
    196a:	df 91       	pop	r29
    196c:	cf 91       	pop	r28
    196e:	08 95       	ret

00001970 <free>:
    1970:	cf 93       	push	r28
    1972:	df 93       	push	r29
    1974:	00 97       	sbiw	r24, 0x00	; 0
    1976:	09 f4       	brne	.+2      	; 0x197a <free+0xa>
    1978:	87 c0       	rjmp	.+270    	; 0x1a88 <free+0x118>
    197a:	fc 01       	movw	r30, r24
    197c:	32 97       	sbiw	r30, 0x02	; 2
    197e:	13 82       	std	Z+3, r1	; 0x03
    1980:	12 82       	std	Z+2, r1	; 0x02
    1982:	c0 91 57 02 	lds	r28, 0x0257
    1986:	d0 91 58 02 	lds	r29, 0x0258
    198a:	20 97       	sbiw	r28, 0x00	; 0
    198c:	81 f4       	brne	.+32     	; 0x19ae <free+0x3e>
    198e:	20 81       	ld	r18, Z
    1990:	31 81       	ldd	r19, Z+1	; 0x01
    1992:	28 0f       	add	r18, r24
    1994:	39 1f       	adc	r19, r25
    1996:	80 91 55 02 	lds	r24, 0x0255
    199a:	90 91 56 02 	lds	r25, 0x0256
    199e:	82 17       	cp	r24, r18
    19a0:	93 07       	cpc	r25, r19
    19a2:	79 f5       	brne	.+94     	; 0x1a02 <free+0x92>
    19a4:	f0 93 56 02 	sts	0x0256, r31
    19a8:	e0 93 55 02 	sts	0x0255, r30
    19ac:	6d c0       	rjmp	.+218    	; 0x1a88 <free+0x118>
    19ae:	de 01       	movw	r26, r28
    19b0:	20 e0       	ldi	r18, 0x00	; 0
    19b2:	30 e0       	ldi	r19, 0x00	; 0
    19b4:	ae 17       	cp	r26, r30
    19b6:	bf 07       	cpc	r27, r31
    19b8:	50 f4       	brcc	.+20     	; 0x19ce <free+0x5e>
    19ba:	12 96       	adiw	r26, 0x02	; 2
    19bc:	4d 91       	ld	r20, X+
    19be:	5c 91       	ld	r21, X
    19c0:	13 97       	sbiw	r26, 0x03	; 3
    19c2:	9d 01       	movw	r18, r26
    19c4:	41 15       	cp	r20, r1
    19c6:	51 05       	cpc	r21, r1
    19c8:	09 f1       	breq	.+66     	; 0x1a0c <free+0x9c>
    19ca:	da 01       	movw	r26, r20
    19cc:	f3 cf       	rjmp	.-26     	; 0x19b4 <free+0x44>
    19ce:	b3 83       	std	Z+3, r27	; 0x03
    19d0:	a2 83       	std	Z+2, r26	; 0x02
    19d2:	40 81       	ld	r20, Z
    19d4:	51 81       	ldd	r21, Z+1	; 0x01
    19d6:	84 0f       	add	r24, r20
    19d8:	95 1f       	adc	r25, r21
    19da:	8a 17       	cp	r24, r26
    19dc:	9b 07       	cpc	r25, r27
    19de:	71 f4       	brne	.+28     	; 0x19fc <free+0x8c>
    19e0:	8d 91       	ld	r24, X+
    19e2:	9c 91       	ld	r25, X
    19e4:	11 97       	sbiw	r26, 0x01	; 1
    19e6:	84 0f       	add	r24, r20
    19e8:	95 1f       	adc	r25, r21
    19ea:	02 96       	adiw	r24, 0x02	; 2
    19ec:	91 83       	std	Z+1, r25	; 0x01
    19ee:	80 83       	st	Z, r24
    19f0:	12 96       	adiw	r26, 0x02	; 2
    19f2:	8d 91       	ld	r24, X+
    19f4:	9c 91       	ld	r25, X
    19f6:	13 97       	sbiw	r26, 0x03	; 3
    19f8:	93 83       	std	Z+3, r25	; 0x03
    19fa:	82 83       	std	Z+2, r24	; 0x02
    19fc:	21 15       	cp	r18, r1
    19fe:	31 05       	cpc	r19, r1
    1a00:	29 f4       	brne	.+10     	; 0x1a0c <free+0x9c>
    1a02:	f0 93 58 02 	sts	0x0258, r31
    1a06:	e0 93 57 02 	sts	0x0257, r30
    1a0a:	3e c0       	rjmp	.+124    	; 0x1a88 <free+0x118>
    1a0c:	d9 01       	movw	r26, r18
    1a0e:	13 96       	adiw	r26, 0x03	; 3
    1a10:	fc 93       	st	X, r31
    1a12:	ee 93       	st	-X, r30
    1a14:	12 97       	sbiw	r26, 0x02	; 2
    1a16:	4d 91       	ld	r20, X+
    1a18:	5d 91       	ld	r21, X+
    1a1a:	a4 0f       	add	r26, r20
    1a1c:	b5 1f       	adc	r27, r21
    1a1e:	ea 17       	cp	r30, r26
    1a20:	fb 07       	cpc	r31, r27
    1a22:	79 f4       	brne	.+30     	; 0x1a42 <free+0xd2>
    1a24:	80 81       	ld	r24, Z
    1a26:	91 81       	ldd	r25, Z+1	; 0x01
    1a28:	84 0f       	add	r24, r20
    1a2a:	95 1f       	adc	r25, r21
    1a2c:	02 96       	adiw	r24, 0x02	; 2
    1a2e:	d9 01       	movw	r26, r18
    1a30:	11 96       	adiw	r26, 0x01	; 1
    1a32:	9c 93       	st	X, r25
    1a34:	8e 93       	st	-X, r24
    1a36:	82 81       	ldd	r24, Z+2	; 0x02
    1a38:	93 81       	ldd	r25, Z+3	; 0x03
    1a3a:	13 96       	adiw	r26, 0x03	; 3
    1a3c:	9c 93       	st	X, r25
    1a3e:	8e 93       	st	-X, r24
    1a40:	12 97       	sbiw	r26, 0x02	; 2
    1a42:	e0 e0       	ldi	r30, 0x00	; 0
    1a44:	f0 e0       	ldi	r31, 0x00	; 0
    1a46:	8a 81       	ldd	r24, Y+2	; 0x02
    1a48:	9b 81       	ldd	r25, Y+3	; 0x03
    1a4a:	00 97       	sbiw	r24, 0x00	; 0
    1a4c:	19 f0       	breq	.+6      	; 0x1a54 <free+0xe4>
    1a4e:	fe 01       	movw	r30, r28
    1a50:	ec 01       	movw	r28, r24
    1a52:	f9 cf       	rjmp	.-14     	; 0x1a46 <free+0xd6>
    1a54:	ce 01       	movw	r24, r28
    1a56:	02 96       	adiw	r24, 0x02	; 2
    1a58:	28 81       	ld	r18, Y
    1a5a:	39 81       	ldd	r19, Y+1	; 0x01
    1a5c:	82 0f       	add	r24, r18
    1a5e:	93 1f       	adc	r25, r19
    1a60:	20 91 55 02 	lds	r18, 0x0255
    1a64:	30 91 56 02 	lds	r19, 0x0256
    1a68:	28 17       	cp	r18, r24
    1a6a:	39 07       	cpc	r19, r25
    1a6c:	69 f4       	brne	.+26     	; 0x1a88 <free+0x118>
    1a6e:	30 97       	sbiw	r30, 0x00	; 0
    1a70:	29 f4       	brne	.+10     	; 0x1a7c <free+0x10c>
    1a72:	10 92 58 02 	sts	0x0258, r1
    1a76:	10 92 57 02 	sts	0x0257, r1
    1a7a:	02 c0       	rjmp	.+4      	; 0x1a80 <free+0x110>
    1a7c:	13 82       	std	Z+3, r1	; 0x03
    1a7e:	12 82       	std	Z+2, r1	; 0x02
    1a80:	d0 93 56 02 	sts	0x0256, r29
    1a84:	c0 93 55 02 	sts	0x0255, r28
    1a88:	df 91       	pop	r29
    1a8a:	cf 91       	pop	r28
    1a8c:	08 95       	ret

00001a8e <__itoa_ncheck>:
    1a8e:	bb 27       	eor	r27, r27
    1a90:	4a 30       	cpi	r20, 0x0A	; 10
    1a92:	31 f4       	brne	.+12     	; 0x1aa0 <__itoa_ncheck+0x12>
    1a94:	99 23       	and	r25, r25
    1a96:	22 f4       	brpl	.+8      	; 0x1aa0 <__itoa_ncheck+0x12>
    1a98:	bd e2       	ldi	r27, 0x2D	; 45
    1a9a:	90 95       	com	r25
    1a9c:	81 95       	neg	r24
    1a9e:	9f 4f       	sbci	r25, 0xFF	; 255
    1aa0:	01 c0       	rjmp	.+2      	; 0x1aa4 <__utoa_common>

00001aa2 <__utoa_ncheck>:
    1aa2:	bb 27       	eor	r27, r27

00001aa4 <__utoa_common>:
    1aa4:	fb 01       	movw	r30, r22
    1aa6:	55 27       	eor	r21, r21
    1aa8:	aa 27       	eor	r26, r26
    1aaa:	88 0f       	add	r24, r24
    1aac:	99 1f       	adc	r25, r25
    1aae:	aa 1f       	adc	r26, r26
    1ab0:	a4 17       	cp	r26, r20
    1ab2:	10 f0       	brcs	.+4      	; 0x1ab8 <__utoa_common+0x14>
    1ab4:	a4 1b       	sub	r26, r20
    1ab6:	83 95       	inc	r24
    1ab8:	50 51       	subi	r21, 0x10	; 16
    1aba:	b9 f7       	brne	.-18     	; 0x1aaa <__utoa_common+0x6>
    1abc:	a0 5d       	subi	r26, 0xD0	; 208
    1abe:	aa 33       	cpi	r26, 0x3A	; 58
    1ac0:	08 f0       	brcs	.+2      	; 0x1ac4 <__utoa_common+0x20>
    1ac2:	a9 5d       	subi	r26, 0xD9	; 217
    1ac4:	a1 93       	st	Z+, r26
    1ac6:	00 97       	sbiw	r24, 0x00	; 0
    1ac8:	79 f7       	brne	.-34     	; 0x1aa8 <__utoa_common+0x4>
    1aca:	b1 11       	cpse	r27, r1
    1acc:	b1 93       	st	Z+, r27
    1ace:	11 92       	st	Z+, r1
    1ad0:	cb 01       	movw	r24, r22
    1ad2:	82 c2       	rjmp	.+1284   	; 0x1fd8 <strrev>

00001ad4 <fdevopen>:
    1ad4:	0f 93       	push	r16
    1ad6:	1f 93       	push	r17
    1ad8:	cf 93       	push	r28
    1ada:	df 93       	push	r29
    1adc:	ec 01       	movw	r28, r24
    1ade:	8b 01       	movw	r16, r22
    1ae0:	00 97       	sbiw	r24, 0x00	; 0
    1ae2:	31 f4       	brne	.+12     	; 0x1af0 <fdevopen+0x1c>
    1ae4:	61 15       	cp	r22, r1
    1ae6:	71 05       	cpc	r23, r1
    1ae8:	19 f4       	brne	.+6      	; 0x1af0 <fdevopen+0x1c>
    1aea:	80 e0       	ldi	r24, 0x00	; 0
    1aec:	90 e0       	ldi	r25, 0x00	; 0
    1aee:	37 c0       	rjmp	.+110    	; 0x1b5e <fdevopen+0x8a>
    1af0:	6e e0       	ldi	r22, 0x0E	; 14
    1af2:	70 e0       	ldi	r23, 0x00	; 0
    1af4:	81 e0       	ldi	r24, 0x01	; 1
    1af6:	90 e0       	ldi	r25, 0x00	; 0
    1af8:	38 d2       	rcall	.+1136   	; 0x1f6a <calloc>
    1afa:	fc 01       	movw	r30, r24
    1afc:	00 97       	sbiw	r24, 0x00	; 0
    1afe:	a9 f3       	breq	.-22     	; 0x1aea <fdevopen+0x16>
    1b00:	80 e8       	ldi	r24, 0x80	; 128
    1b02:	83 83       	std	Z+3, r24	; 0x03
    1b04:	01 15       	cp	r16, r1
    1b06:	11 05       	cpc	r17, r1
    1b08:	71 f0       	breq	.+28     	; 0x1b26 <fdevopen+0x52>
    1b0a:	13 87       	std	Z+11, r17	; 0x0b
    1b0c:	02 87       	std	Z+10, r16	; 0x0a
    1b0e:	81 e8       	ldi	r24, 0x81	; 129
    1b10:	83 83       	std	Z+3, r24	; 0x03
    1b12:	80 91 59 02 	lds	r24, 0x0259
    1b16:	90 91 5a 02 	lds	r25, 0x025A
    1b1a:	89 2b       	or	r24, r25
    1b1c:	21 f4       	brne	.+8      	; 0x1b26 <fdevopen+0x52>
    1b1e:	f0 93 5a 02 	sts	0x025A, r31
    1b22:	e0 93 59 02 	sts	0x0259, r30
    1b26:	20 97       	sbiw	r28, 0x00	; 0
    1b28:	c9 f0       	breq	.+50     	; 0x1b5c <fdevopen+0x88>
    1b2a:	d1 87       	std	Z+9, r29	; 0x09
    1b2c:	c0 87       	std	Z+8, r28	; 0x08
    1b2e:	83 81       	ldd	r24, Z+3	; 0x03
    1b30:	82 60       	ori	r24, 0x02	; 2
    1b32:	83 83       	std	Z+3, r24	; 0x03
    1b34:	80 91 5b 02 	lds	r24, 0x025B
    1b38:	90 91 5c 02 	lds	r25, 0x025C
    1b3c:	89 2b       	or	r24, r25
    1b3e:	71 f4       	brne	.+28     	; 0x1b5c <fdevopen+0x88>
    1b40:	f0 93 5c 02 	sts	0x025C, r31
    1b44:	e0 93 5b 02 	sts	0x025B, r30
    1b48:	80 91 5d 02 	lds	r24, 0x025D
    1b4c:	90 91 5e 02 	lds	r25, 0x025E
    1b50:	89 2b       	or	r24, r25
    1b52:	21 f4       	brne	.+8      	; 0x1b5c <fdevopen+0x88>
    1b54:	f0 93 5e 02 	sts	0x025E, r31
    1b58:	e0 93 5d 02 	sts	0x025D, r30
    1b5c:	cf 01       	movw	r24, r30
    1b5e:	df 91       	pop	r29
    1b60:	cf 91       	pop	r28
    1b62:	1f 91       	pop	r17
    1b64:	0f 91       	pop	r16
    1b66:	08 95       	ret

00001b68 <printf>:
    1b68:	a0 e0       	ldi	r26, 0x00	; 0
    1b6a:	b0 e0       	ldi	r27, 0x00	; 0
    1b6c:	e9 eb       	ldi	r30, 0xB9	; 185
    1b6e:	fd e0       	ldi	r31, 0x0D	; 13
    1b70:	e3 c2       	rjmp	.+1478   	; 0x2138 <__prologue_saves__+0x20>
    1b72:	fe 01       	movw	r30, r28
    1b74:	35 96       	adiw	r30, 0x05	; 5
    1b76:	61 91       	ld	r22, Z+
    1b78:	71 91       	ld	r23, Z+
    1b7a:	af 01       	movw	r20, r30
    1b7c:	80 91 5b 02 	lds	r24, 0x025B
    1b80:	90 91 5c 02 	lds	r25, 0x025C
    1b84:	2f d0       	rcall	.+94     	; 0x1be4 <vfprintf>
    1b86:	e2 e0       	ldi	r30, 0x02	; 2
    1b88:	f3 c2       	rjmp	.+1510   	; 0x2170 <__epilogue_restores__+0x20>

00001b8a <puts>:
    1b8a:	0f 93       	push	r16
    1b8c:	1f 93       	push	r17
    1b8e:	cf 93       	push	r28
    1b90:	df 93       	push	r29
    1b92:	e0 91 5b 02 	lds	r30, 0x025B
    1b96:	f0 91 5c 02 	lds	r31, 0x025C
    1b9a:	23 81       	ldd	r18, Z+3	; 0x03
    1b9c:	21 ff       	sbrs	r18, 1
    1b9e:	1b c0       	rjmp	.+54     	; 0x1bd6 <puts+0x4c>
    1ba0:	ec 01       	movw	r28, r24
    1ba2:	00 e0       	ldi	r16, 0x00	; 0
    1ba4:	10 e0       	ldi	r17, 0x00	; 0
    1ba6:	89 91       	ld	r24, Y+
    1ba8:	60 91 5b 02 	lds	r22, 0x025B
    1bac:	70 91 5c 02 	lds	r23, 0x025C
    1bb0:	db 01       	movw	r26, r22
    1bb2:	18 96       	adiw	r26, 0x08	; 8
    1bb4:	ed 91       	ld	r30, X+
    1bb6:	fc 91       	ld	r31, X
    1bb8:	19 97       	sbiw	r26, 0x09	; 9
    1bba:	88 23       	and	r24, r24
    1bbc:	31 f0       	breq	.+12     	; 0x1bca <puts+0x40>
    1bbe:	09 95       	icall
    1bc0:	89 2b       	or	r24, r25
    1bc2:	89 f3       	breq	.-30     	; 0x1ba6 <puts+0x1c>
    1bc4:	0f ef       	ldi	r16, 0xFF	; 255
    1bc6:	1f ef       	ldi	r17, 0xFF	; 255
    1bc8:	ee cf       	rjmp	.-36     	; 0x1ba6 <puts+0x1c>
    1bca:	8a e0       	ldi	r24, 0x0A	; 10
    1bcc:	09 95       	icall
    1bce:	89 2b       	or	r24, r25
    1bd0:	11 f4       	brne	.+4      	; 0x1bd6 <puts+0x4c>
    1bd2:	c8 01       	movw	r24, r16
    1bd4:	02 c0       	rjmp	.+4      	; 0x1bda <puts+0x50>
    1bd6:	8f ef       	ldi	r24, 0xFF	; 255
    1bd8:	9f ef       	ldi	r25, 0xFF	; 255
    1bda:	df 91       	pop	r29
    1bdc:	cf 91       	pop	r28
    1bde:	1f 91       	pop	r17
    1be0:	0f 91       	pop	r16
    1be2:	08 95       	ret

00001be4 <vfprintf>:
    1be4:	ac e0       	ldi	r26, 0x0C	; 12
    1be6:	b0 e0       	ldi	r27, 0x00	; 0
    1be8:	e7 ef       	ldi	r30, 0xF7	; 247
    1bea:	fd e0       	ldi	r31, 0x0D	; 13
    1bec:	95 c2       	rjmp	.+1322   	; 0x2118 <__prologue_saves__>
    1bee:	7c 01       	movw	r14, r24
    1bf0:	6b 01       	movw	r12, r22
    1bf2:	8a 01       	movw	r16, r20
    1bf4:	fc 01       	movw	r30, r24
    1bf6:	17 82       	std	Z+7, r1	; 0x07
    1bf8:	16 82       	std	Z+6, r1	; 0x06
    1bfa:	83 81       	ldd	r24, Z+3	; 0x03
    1bfc:	81 ff       	sbrs	r24, 1
    1bfe:	b0 c1       	rjmp	.+864    	; 0x1f60 <vfprintf+0x37c>
    1c00:	ce 01       	movw	r24, r28
    1c02:	01 96       	adiw	r24, 0x01	; 1
    1c04:	4c 01       	movw	r8, r24
    1c06:	f7 01       	movw	r30, r14
    1c08:	93 81       	ldd	r25, Z+3	; 0x03
    1c0a:	f6 01       	movw	r30, r12
    1c0c:	93 fd       	sbrc	r25, 3
    1c0e:	85 91       	lpm	r24, Z+
    1c10:	93 ff       	sbrs	r25, 3
    1c12:	81 91       	ld	r24, Z+
    1c14:	6f 01       	movw	r12, r30
    1c16:	88 23       	and	r24, r24
    1c18:	09 f4       	brne	.+2      	; 0x1c1c <vfprintf+0x38>
    1c1a:	9e c1       	rjmp	.+828    	; 0x1f58 <vfprintf+0x374>
    1c1c:	85 32       	cpi	r24, 0x25	; 37
    1c1e:	39 f4       	brne	.+14     	; 0x1c2e <vfprintf+0x4a>
    1c20:	93 fd       	sbrc	r25, 3
    1c22:	85 91       	lpm	r24, Z+
    1c24:	93 ff       	sbrs	r25, 3
    1c26:	81 91       	ld	r24, Z+
    1c28:	6f 01       	movw	r12, r30
    1c2a:	85 32       	cpi	r24, 0x25	; 37
    1c2c:	21 f4       	brne	.+8      	; 0x1c36 <vfprintf+0x52>
    1c2e:	b7 01       	movw	r22, r14
    1c30:	90 e0       	ldi	r25, 0x00	; 0
    1c32:	e2 d1       	rcall	.+964    	; 0x1ff8 <fputc>
    1c34:	e8 cf       	rjmp	.-48     	; 0x1c06 <vfprintf+0x22>
    1c36:	51 2c       	mov	r5, r1
    1c38:	31 2c       	mov	r3, r1
    1c3a:	20 e0       	ldi	r18, 0x00	; 0
    1c3c:	20 32       	cpi	r18, 0x20	; 32
    1c3e:	a0 f4       	brcc	.+40     	; 0x1c68 <vfprintf+0x84>
    1c40:	8b 32       	cpi	r24, 0x2B	; 43
    1c42:	69 f0       	breq	.+26     	; 0x1c5e <vfprintf+0x7a>
    1c44:	30 f4       	brcc	.+12     	; 0x1c52 <vfprintf+0x6e>
    1c46:	80 32       	cpi	r24, 0x20	; 32
    1c48:	59 f0       	breq	.+22     	; 0x1c60 <vfprintf+0x7c>
    1c4a:	83 32       	cpi	r24, 0x23	; 35
    1c4c:	69 f4       	brne	.+26     	; 0x1c68 <vfprintf+0x84>
    1c4e:	20 61       	ori	r18, 0x10	; 16
    1c50:	2c c0       	rjmp	.+88     	; 0x1caa <vfprintf+0xc6>
    1c52:	8d 32       	cpi	r24, 0x2D	; 45
    1c54:	39 f0       	breq	.+14     	; 0x1c64 <vfprintf+0x80>
    1c56:	80 33       	cpi	r24, 0x30	; 48
    1c58:	39 f4       	brne	.+14     	; 0x1c68 <vfprintf+0x84>
    1c5a:	21 60       	ori	r18, 0x01	; 1
    1c5c:	26 c0       	rjmp	.+76     	; 0x1caa <vfprintf+0xc6>
    1c5e:	22 60       	ori	r18, 0x02	; 2
    1c60:	24 60       	ori	r18, 0x04	; 4
    1c62:	23 c0       	rjmp	.+70     	; 0x1caa <vfprintf+0xc6>
    1c64:	28 60       	ori	r18, 0x08	; 8
    1c66:	21 c0       	rjmp	.+66     	; 0x1caa <vfprintf+0xc6>
    1c68:	27 fd       	sbrc	r18, 7
    1c6a:	27 c0       	rjmp	.+78     	; 0x1cba <vfprintf+0xd6>
    1c6c:	30 ed       	ldi	r19, 0xD0	; 208
    1c6e:	38 0f       	add	r19, r24
    1c70:	3a 30       	cpi	r19, 0x0A	; 10
    1c72:	78 f4       	brcc	.+30     	; 0x1c92 <vfprintf+0xae>
    1c74:	26 ff       	sbrs	r18, 6
    1c76:	06 c0       	rjmp	.+12     	; 0x1c84 <vfprintf+0xa0>
    1c78:	fa e0       	ldi	r31, 0x0A	; 10
    1c7a:	5f 9e       	mul	r5, r31
    1c7c:	30 0d       	add	r19, r0
    1c7e:	11 24       	eor	r1, r1
    1c80:	53 2e       	mov	r5, r19
    1c82:	13 c0       	rjmp	.+38     	; 0x1caa <vfprintf+0xc6>
    1c84:	8a e0       	ldi	r24, 0x0A	; 10
    1c86:	38 9e       	mul	r3, r24
    1c88:	30 0d       	add	r19, r0
    1c8a:	11 24       	eor	r1, r1
    1c8c:	33 2e       	mov	r3, r19
    1c8e:	20 62       	ori	r18, 0x20	; 32
    1c90:	0c c0       	rjmp	.+24     	; 0x1caa <vfprintf+0xc6>
    1c92:	8e 32       	cpi	r24, 0x2E	; 46
    1c94:	21 f4       	brne	.+8      	; 0x1c9e <vfprintf+0xba>
    1c96:	26 fd       	sbrc	r18, 6
    1c98:	5f c1       	rjmp	.+702    	; 0x1f58 <vfprintf+0x374>
    1c9a:	20 64       	ori	r18, 0x40	; 64
    1c9c:	06 c0       	rjmp	.+12     	; 0x1caa <vfprintf+0xc6>
    1c9e:	8c 36       	cpi	r24, 0x6C	; 108
    1ca0:	11 f4       	brne	.+4      	; 0x1ca6 <vfprintf+0xc2>
    1ca2:	20 68       	ori	r18, 0x80	; 128
    1ca4:	02 c0       	rjmp	.+4      	; 0x1caa <vfprintf+0xc6>
    1ca6:	88 36       	cpi	r24, 0x68	; 104
    1ca8:	41 f4       	brne	.+16     	; 0x1cba <vfprintf+0xd6>
    1caa:	f6 01       	movw	r30, r12
    1cac:	93 fd       	sbrc	r25, 3
    1cae:	85 91       	lpm	r24, Z+
    1cb0:	93 ff       	sbrs	r25, 3
    1cb2:	81 91       	ld	r24, Z+
    1cb4:	6f 01       	movw	r12, r30
    1cb6:	81 11       	cpse	r24, r1
    1cb8:	c1 cf       	rjmp	.-126    	; 0x1c3c <vfprintf+0x58>
    1cba:	98 2f       	mov	r25, r24
    1cbc:	9f 7d       	andi	r25, 0xDF	; 223
    1cbe:	95 54       	subi	r25, 0x45	; 69
    1cc0:	93 30       	cpi	r25, 0x03	; 3
    1cc2:	28 f4       	brcc	.+10     	; 0x1cce <vfprintf+0xea>
    1cc4:	0c 5f       	subi	r16, 0xFC	; 252
    1cc6:	1f 4f       	sbci	r17, 0xFF	; 255
    1cc8:	ff e3       	ldi	r31, 0x3F	; 63
    1cca:	f9 83       	std	Y+1, r31	; 0x01
    1ccc:	0d c0       	rjmp	.+26     	; 0x1ce8 <vfprintf+0x104>
    1cce:	83 36       	cpi	r24, 0x63	; 99
    1cd0:	31 f0       	breq	.+12     	; 0x1cde <vfprintf+0xfa>
    1cd2:	83 37       	cpi	r24, 0x73	; 115
    1cd4:	71 f0       	breq	.+28     	; 0x1cf2 <vfprintf+0x10e>
    1cd6:	83 35       	cpi	r24, 0x53	; 83
    1cd8:	09 f0       	breq	.+2      	; 0x1cdc <vfprintf+0xf8>
    1cda:	57 c0       	rjmp	.+174    	; 0x1d8a <vfprintf+0x1a6>
    1cdc:	21 c0       	rjmp	.+66     	; 0x1d20 <vfprintf+0x13c>
    1cde:	f8 01       	movw	r30, r16
    1ce0:	80 81       	ld	r24, Z
    1ce2:	89 83       	std	Y+1, r24	; 0x01
    1ce4:	0e 5f       	subi	r16, 0xFE	; 254
    1ce6:	1f 4f       	sbci	r17, 0xFF	; 255
    1ce8:	44 24       	eor	r4, r4
    1cea:	43 94       	inc	r4
    1cec:	51 2c       	mov	r5, r1
    1cee:	54 01       	movw	r10, r8
    1cf0:	14 c0       	rjmp	.+40     	; 0x1d1a <vfprintf+0x136>
    1cf2:	38 01       	movw	r6, r16
    1cf4:	f2 e0       	ldi	r31, 0x02	; 2
    1cf6:	6f 0e       	add	r6, r31
    1cf8:	71 1c       	adc	r7, r1
    1cfa:	f8 01       	movw	r30, r16
    1cfc:	a0 80       	ld	r10, Z
    1cfe:	b1 80       	ldd	r11, Z+1	; 0x01
    1d00:	26 ff       	sbrs	r18, 6
    1d02:	03 c0       	rjmp	.+6      	; 0x1d0a <vfprintf+0x126>
    1d04:	65 2d       	mov	r22, r5
    1d06:	70 e0       	ldi	r23, 0x00	; 0
    1d08:	02 c0       	rjmp	.+4      	; 0x1d0e <vfprintf+0x12a>
    1d0a:	6f ef       	ldi	r22, 0xFF	; 255
    1d0c:	7f ef       	ldi	r23, 0xFF	; 255
    1d0e:	c5 01       	movw	r24, r10
    1d10:	2c 87       	std	Y+12, r18	; 0x0c
    1d12:	57 d1       	rcall	.+686    	; 0x1fc2 <strnlen>
    1d14:	2c 01       	movw	r4, r24
    1d16:	83 01       	movw	r16, r6
    1d18:	2c 85       	ldd	r18, Y+12	; 0x0c
    1d1a:	2f 77       	andi	r18, 0x7F	; 127
    1d1c:	22 2e       	mov	r2, r18
    1d1e:	16 c0       	rjmp	.+44     	; 0x1d4c <vfprintf+0x168>
    1d20:	38 01       	movw	r6, r16
    1d22:	f2 e0       	ldi	r31, 0x02	; 2
    1d24:	6f 0e       	add	r6, r31
    1d26:	71 1c       	adc	r7, r1
    1d28:	f8 01       	movw	r30, r16
    1d2a:	a0 80       	ld	r10, Z
    1d2c:	b1 80       	ldd	r11, Z+1	; 0x01
    1d2e:	26 ff       	sbrs	r18, 6
    1d30:	03 c0       	rjmp	.+6      	; 0x1d38 <vfprintf+0x154>
    1d32:	65 2d       	mov	r22, r5
    1d34:	70 e0       	ldi	r23, 0x00	; 0
    1d36:	02 c0       	rjmp	.+4      	; 0x1d3c <vfprintf+0x158>
    1d38:	6f ef       	ldi	r22, 0xFF	; 255
    1d3a:	7f ef       	ldi	r23, 0xFF	; 255
    1d3c:	c5 01       	movw	r24, r10
    1d3e:	2c 87       	std	Y+12, r18	; 0x0c
    1d40:	2e d1       	rcall	.+604    	; 0x1f9e <strnlen_P>
    1d42:	2c 01       	movw	r4, r24
    1d44:	2c 85       	ldd	r18, Y+12	; 0x0c
    1d46:	20 68       	ori	r18, 0x80	; 128
    1d48:	22 2e       	mov	r2, r18
    1d4a:	83 01       	movw	r16, r6
    1d4c:	23 fc       	sbrc	r2, 3
    1d4e:	19 c0       	rjmp	.+50     	; 0x1d82 <vfprintf+0x19e>
    1d50:	83 2d       	mov	r24, r3
    1d52:	90 e0       	ldi	r25, 0x00	; 0
    1d54:	48 16       	cp	r4, r24
    1d56:	59 06       	cpc	r5, r25
    1d58:	a0 f4       	brcc	.+40     	; 0x1d82 <vfprintf+0x19e>
    1d5a:	b7 01       	movw	r22, r14
    1d5c:	80 e2       	ldi	r24, 0x20	; 32
    1d5e:	90 e0       	ldi	r25, 0x00	; 0
    1d60:	4b d1       	rcall	.+662    	; 0x1ff8 <fputc>
    1d62:	3a 94       	dec	r3
    1d64:	f5 cf       	rjmp	.-22     	; 0x1d50 <vfprintf+0x16c>
    1d66:	f5 01       	movw	r30, r10
    1d68:	27 fc       	sbrc	r2, 7
    1d6a:	85 91       	lpm	r24, Z+
    1d6c:	27 fe       	sbrs	r2, 7
    1d6e:	81 91       	ld	r24, Z+
    1d70:	5f 01       	movw	r10, r30
    1d72:	b7 01       	movw	r22, r14
    1d74:	90 e0       	ldi	r25, 0x00	; 0
    1d76:	40 d1       	rcall	.+640    	; 0x1ff8 <fputc>
    1d78:	31 10       	cpse	r3, r1
    1d7a:	3a 94       	dec	r3
    1d7c:	f1 e0       	ldi	r31, 0x01	; 1
    1d7e:	4f 1a       	sub	r4, r31
    1d80:	51 08       	sbc	r5, r1
    1d82:	41 14       	cp	r4, r1
    1d84:	51 04       	cpc	r5, r1
    1d86:	79 f7       	brne	.-34     	; 0x1d66 <vfprintf+0x182>
    1d88:	de c0       	rjmp	.+444    	; 0x1f46 <vfprintf+0x362>
    1d8a:	84 36       	cpi	r24, 0x64	; 100
    1d8c:	11 f0       	breq	.+4      	; 0x1d92 <vfprintf+0x1ae>
    1d8e:	89 36       	cpi	r24, 0x69	; 105
    1d90:	31 f5       	brne	.+76     	; 0x1dde <vfprintf+0x1fa>
    1d92:	f8 01       	movw	r30, r16
    1d94:	27 ff       	sbrs	r18, 7
    1d96:	07 c0       	rjmp	.+14     	; 0x1da6 <vfprintf+0x1c2>
    1d98:	60 81       	ld	r22, Z
    1d9a:	71 81       	ldd	r23, Z+1	; 0x01
    1d9c:	82 81       	ldd	r24, Z+2	; 0x02
    1d9e:	93 81       	ldd	r25, Z+3	; 0x03
    1da0:	0c 5f       	subi	r16, 0xFC	; 252
    1da2:	1f 4f       	sbci	r17, 0xFF	; 255
    1da4:	08 c0       	rjmp	.+16     	; 0x1db6 <vfprintf+0x1d2>
    1da6:	60 81       	ld	r22, Z
    1da8:	71 81       	ldd	r23, Z+1	; 0x01
    1daa:	88 27       	eor	r24, r24
    1dac:	77 fd       	sbrc	r23, 7
    1dae:	80 95       	com	r24
    1db0:	98 2f       	mov	r25, r24
    1db2:	0e 5f       	subi	r16, 0xFE	; 254
    1db4:	1f 4f       	sbci	r17, 0xFF	; 255
    1db6:	2f 76       	andi	r18, 0x6F	; 111
    1db8:	b2 2e       	mov	r11, r18
    1dba:	97 ff       	sbrs	r25, 7
    1dbc:	09 c0       	rjmp	.+18     	; 0x1dd0 <vfprintf+0x1ec>
    1dbe:	90 95       	com	r25
    1dc0:	80 95       	com	r24
    1dc2:	70 95       	com	r23
    1dc4:	61 95       	neg	r22
    1dc6:	7f 4f       	sbci	r23, 0xFF	; 255
    1dc8:	8f 4f       	sbci	r24, 0xFF	; 255
    1dca:	9f 4f       	sbci	r25, 0xFF	; 255
    1dcc:	20 68       	ori	r18, 0x80	; 128
    1dce:	b2 2e       	mov	r11, r18
    1dd0:	2a e0       	ldi	r18, 0x0A	; 10
    1dd2:	30 e0       	ldi	r19, 0x00	; 0
    1dd4:	a4 01       	movw	r20, r8
    1dd6:	42 d1       	rcall	.+644    	; 0x205c <__ultoa_invert>
    1dd8:	a8 2e       	mov	r10, r24
    1dda:	a8 18       	sub	r10, r8
    1ddc:	43 c0       	rjmp	.+134    	; 0x1e64 <vfprintf+0x280>
    1dde:	85 37       	cpi	r24, 0x75	; 117
    1de0:	29 f4       	brne	.+10     	; 0x1dec <vfprintf+0x208>
    1de2:	2f 7e       	andi	r18, 0xEF	; 239
    1de4:	b2 2e       	mov	r11, r18
    1de6:	2a e0       	ldi	r18, 0x0A	; 10
    1de8:	30 e0       	ldi	r19, 0x00	; 0
    1dea:	25 c0       	rjmp	.+74     	; 0x1e36 <vfprintf+0x252>
    1dec:	f2 2f       	mov	r31, r18
    1dee:	f9 7f       	andi	r31, 0xF9	; 249
    1df0:	bf 2e       	mov	r11, r31
    1df2:	8f 36       	cpi	r24, 0x6F	; 111
    1df4:	c1 f0       	breq	.+48     	; 0x1e26 <vfprintf+0x242>
    1df6:	18 f4       	brcc	.+6      	; 0x1dfe <vfprintf+0x21a>
    1df8:	88 35       	cpi	r24, 0x58	; 88
    1dfa:	79 f0       	breq	.+30     	; 0x1e1a <vfprintf+0x236>
    1dfc:	ad c0       	rjmp	.+346    	; 0x1f58 <vfprintf+0x374>
    1dfe:	80 37       	cpi	r24, 0x70	; 112
    1e00:	19 f0       	breq	.+6      	; 0x1e08 <vfprintf+0x224>
    1e02:	88 37       	cpi	r24, 0x78	; 120
    1e04:	21 f0       	breq	.+8      	; 0x1e0e <vfprintf+0x22a>
    1e06:	a8 c0       	rjmp	.+336    	; 0x1f58 <vfprintf+0x374>
    1e08:	2f 2f       	mov	r18, r31
    1e0a:	20 61       	ori	r18, 0x10	; 16
    1e0c:	b2 2e       	mov	r11, r18
    1e0e:	b4 fe       	sbrs	r11, 4
    1e10:	0d c0       	rjmp	.+26     	; 0x1e2c <vfprintf+0x248>
    1e12:	8b 2d       	mov	r24, r11
    1e14:	84 60       	ori	r24, 0x04	; 4
    1e16:	b8 2e       	mov	r11, r24
    1e18:	09 c0       	rjmp	.+18     	; 0x1e2c <vfprintf+0x248>
    1e1a:	24 ff       	sbrs	r18, 4
    1e1c:	0a c0       	rjmp	.+20     	; 0x1e32 <vfprintf+0x24e>
    1e1e:	9f 2f       	mov	r25, r31
    1e20:	96 60       	ori	r25, 0x06	; 6
    1e22:	b9 2e       	mov	r11, r25
    1e24:	06 c0       	rjmp	.+12     	; 0x1e32 <vfprintf+0x24e>
    1e26:	28 e0       	ldi	r18, 0x08	; 8
    1e28:	30 e0       	ldi	r19, 0x00	; 0
    1e2a:	05 c0       	rjmp	.+10     	; 0x1e36 <vfprintf+0x252>
    1e2c:	20 e1       	ldi	r18, 0x10	; 16
    1e2e:	30 e0       	ldi	r19, 0x00	; 0
    1e30:	02 c0       	rjmp	.+4      	; 0x1e36 <vfprintf+0x252>
    1e32:	20 e1       	ldi	r18, 0x10	; 16
    1e34:	32 e0       	ldi	r19, 0x02	; 2
    1e36:	f8 01       	movw	r30, r16
    1e38:	b7 fe       	sbrs	r11, 7
    1e3a:	07 c0       	rjmp	.+14     	; 0x1e4a <vfprintf+0x266>
    1e3c:	60 81       	ld	r22, Z
    1e3e:	71 81       	ldd	r23, Z+1	; 0x01
    1e40:	82 81       	ldd	r24, Z+2	; 0x02
    1e42:	93 81       	ldd	r25, Z+3	; 0x03
    1e44:	0c 5f       	subi	r16, 0xFC	; 252
    1e46:	1f 4f       	sbci	r17, 0xFF	; 255
    1e48:	06 c0       	rjmp	.+12     	; 0x1e56 <vfprintf+0x272>
    1e4a:	60 81       	ld	r22, Z
    1e4c:	71 81       	ldd	r23, Z+1	; 0x01
    1e4e:	80 e0       	ldi	r24, 0x00	; 0
    1e50:	90 e0       	ldi	r25, 0x00	; 0
    1e52:	0e 5f       	subi	r16, 0xFE	; 254
    1e54:	1f 4f       	sbci	r17, 0xFF	; 255
    1e56:	a4 01       	movw	r20, r8
    1e58:	01 d1       	rcall	.+514    	; 0x205c <__ultoa_invert>
    1e5a:	a8 2e       	mov	r10, r24
    1e5c:	a8 18       	sub	r10, r8
    1e5e:	fb 2d       	mov	r31, r11
    1e60:	ff 77       	andi	r31, 0x7F	; 127
    1e62:	bf 2e       	mov	r11, r31
    1e64:	b6 fe       	sbrs	r11, 6
    1e66:	0b c0       	rjmp	.+22     	; 0x1e7e <vfprintf+0x29a>
    1e68:	2b 2d       	mov	r18, r11
    1e6a:	2e 7f       	andi	r18, 0xFE	; 254
    1e6c:	a5 14       	cp	r10, r5
    1e6e:	50 f4       	brcc	.+20     	; 0x1e84 <vfprintf+0x2a0>
    1e70:	b4 fe       	sbrs	r11, 4
    1e72:	0a c0       	rjmp	.+20     	; 0x1e88 <vfprintf+0x2a4>
    1e74:	b2 fc       	sbrc	r11, 2
    1e76:	08 c0       	rjmp	.+16     	; 0x1e88 <vfprintf+0x2a4>
    1e78:	2b 2d       	mov	r18, r11
    1e7a:	2e 7e       	andi	r18, 0xEE	; 238
    1e7c:	05 c0       	rjmp	.+10     	; 0x1e88 <vfprintf+0x2a4>
    1e7e:	7a 2c       	mov	r7, r10
    1e80:	2b 2d       	mov	r18, r11
    1e82:	03 c0       	rjmp	.+6      	; 0x1e8a <vfprintf+0x2a6>
    1e84:	7a 2c       	mov	r7, r10
    1e86:	01 c0       	rjmp	.+2      	; 0x1e8a <vfprintf+0x2a6>
    1e88:	75 2c       	mov	r7, r5
    1e8a:	24 ff       	sbrs	r18, 4
    1e8c:	0d c0       	rjmp	.+26     	; 0x1ea8 <vfprintf+0x2c4>
    1e8e:	fe 01       	movw	r30, r28
    1e90:	ea 0d       	add	r30, r10
    1e92:	f1 1d       	adc	r31, r1
    1e94:	80 81       	ld	r24, Z
    1e96:	80 33       	cpi	r24, 0x30	; 48
    1e98:	11 f4       	brne	.+4      	; 0x1e9e <vfprintf+0x2ba>
    1e9a:	29 7e       	andi	r18, 0xE9	; 233
    1e9c:	09 c0       	rjmp	.+18     	; 0x1eb0 <vfprintf+0x2cc>
    1e9e:	22 ff       	sbrs	r18, 2
    1ea0:	06 c0       	rjmp	.+12     	; 0x1eae <vfprintf+0x2ca>
    1ea2:	73 94       	inc	r7
    1ea4:	73 94       	inc	r7
    1ea6:	04 c0       	rjmp	.+8      	; 0x1eb0 <vfprintf+0x2cc>
    1ea8:	82 2f       	mov	r24, r18
    1eaa:	86 78       	andi	r24, 0x86	; 134
    1eac:	09 f0       	breq	.+2      	; 0x1eb0 <vfprintf+0x2cc>
    1eae:	73 94       	inc	r7
    1eb0:	23 fd       	sbrc	r18, 3
    1eb2:	12 c0       	rjmp	.+36     	; 0x1ed8 <vfprintf+0x2f4>
    1eb4:	20 ff       	sbrs	r18, 0
    1eb6:	06 c0       	rjmp	.+12     	; 0x1ec4 <vfprintf+0x2e0>
    1eb8:	5a 2c       	mov	r5, r10
    1eba:	73 14       	cp	r7, r3
    1ebc:	18 f4       	brcc	.+6      	; 0x1ec4 <vfprintf+0x2e0>
    1ebe:	53 0c       	add	r5, r3
    1ec0:	57 18       	sub	r5, r7
    1ec2:	73 2c       	mov	r7, r3
    1ec4:	73 14       	cp	r7, r3
    1ec6:	60 f4       	brcc	.+24     	; 0x1ee0 <vfprintf+0x2fc>
    1ec8:	b7 01       	movw	r22, r14
    1eca:	80 e2       	ldi	r24, 0x20	; 32
    1ecc:	90 e0       	ldi	r25, 0x00	; 0
    1ece:	2c 87       	std	Y+12, r18	; 0x0c
    1ed0:	93 d0       	rcall	.+294    	; 0x1ff8 <fputc>
    1ed2:	73 94       	inc	r7
    1ed4:	2c 85       	ldd	r18, Y+12	; 0x0c
    1ed6:	f6 cf       	rjmp	.-20     	; 0x1ec4 <vfprintf+0x2e0>
    1ed8:	73 14       	cp	r7, r3
    1eda:	10 f4       	brcc	.+4      	; 0x1ee0 <vfprintf+0x2fc>
    1edc:	37 18       	sub	r3, r7
    1ede:	01 c0       	rjmp	.+2      	; 0x1ee2 <vfprintf+0x2fe>
    1ee0:	31 2c       	mov	r3, r1
    1ee2:	24 ff       	sbrs	r18, 4
    1ee4:	11 c0       	rjmp	.+34     	; 0x1f08 <vfprintf+0x324>
    1ee6:	b7 01       	movw	r22, r14
    1ee8:	80 e3       	ldi	r24, 0x30	; 48
    1eea:	90 e0       	ldi	r25, 0x00	; 0
    1eec:	2c 87       	std	Y+12, r18	; 0x0c
    1eee:	84 d0       	rcall	.+264    	; 0x1ff8 <fputc>
    1ef0:	2c 85       	ldd	r18, Y+12	; 0x0c
    1ef2:	22 ff       	sbrs	r18, 2
    1ef4:	16 c0       	rjmp	.+44     	; 0x1f22 <vfprintf+0x33e>
    1ef6:	21 ff       	sbrs	r18, 1
    1ef8:	03 c0       	rjmp	.+6      	; 0x1f00 <vfprintf+0x31c>
    1efa:	88 e5       	ldi	r24, 0x58	; 88
    1efc:	90 e0       	ldi	r25, 0x00	; 0
    1efe:	02 c0       	rjmp	.+4      	; 0x1f04 <vfprintf+0x320>
    1f00:	88 e7       	ldi	r24, 0x78	; 120
    1f02:	90 e0       	ldi	r25, 0x00	; 0
    1f04:	b7 01       	movw	r22, r14
    1f06:	0c c0       	rjmp	.+24     	; 0x1f20 <vfprintf+0x33c>
    1f08:	82 2f       	mov	r24, r18
    1f0a:	86 78       	andi	r24, 0x86	; 134
    1f0c:	51 f0       	breq	.+20     	; 0x1f22 <vfprintf+0x33e>
    1f0e:	21 fd       	sbrc	r18, 1
    1f10:	02 c0       	rjmp	.+4      	; 0x1f16 <vfprintf+0x332>
    1f12:	80 e2       	ldi	r24, 0x20	; 32
    1f14:	01 c0       	rjmp	.+2      	; 0x1f18 <vfprintf+0x334>
    1f16:	8b e2       	ldi	r24, 0x2B	; 43
    1f18:	27 fd       	sbrc	r18, 7
    1f1a:	8d e2       	ldi	r24, 0x2D	; 45
    1f1c:	b7 01       	movw	r22, r14
    1f1e:	90 e0       	ldi	r25, 0x00	; 0
    1f20:	6b d0       	rcall	.+214    	; 0x1ff8 <fputc>
    1f22:	a5 14       	cp	r10, r5
    1f24:	30 f4       	brcc	.+12     	; 0x1f32 <vfprintf+0x34e>
    1f26:	b7 01       	movw	r22, r14
    1f28:	80 e3       	ldi	r24, 0x30	; 48
    1f2a:	90 e0       	ldi	r25, 0x00	; 0
    1f2c:	65 d0       	rcall	.+202    	; 0x1ff8 <fputc>
    1f2e:	5a 94       	dec	r5
    1f30:	f8 cf       	rjmp	.-16     	; 0x1f22 <vfprintf+0x33e>
    1f32:	aa 94       	dec	r10
    1f34:	f4 01       	movw	r30, r8
    1f36:	ea 0d       	add	r30, r10
    1f38:	f1 1d       	adc	r31, r1
    1f3a:	80 81       	ld	r24, Z
    1f3c:	b7 01       	movw	r22, r14
    1f3e:	90 e0       	ldi	r25, 0x00	; 0
    1f40:	5b d0       	rcall	.+182    	; 0x1ff8 <fputc>
    1f42:	a1 10       	cpse	r10, r1
    1f44:	f6 cf       	rjmp	.-20     	; 0x1f32 <vfprintf+0x34e>
    1f46:	33 20       	and	r3, r3
    1f48:	09 f4       	brne	.+2      	; 0x1f4c <vfprintf+0x368>
    1f4a:	5d ce       	rjmp	.-838    	; 0x1c06 <vfprintf+0x22>
    1f4c:	b7 01       	movw	r22, r14
    1f4e:	80 e2       	ldi	r24, 0x20	; 32
    1f50:	90 e0       	ldi	r25, 0x00	; 0
    1f52:	52 d0       	rcall	.+164    	; 0x1ff8 <fputc>
    1f54:	3a 94       	dec	r3
    1f56:	f7 cf       	rjmp	.-18     	; 0x1f46 <vfprintf+0x362>
    1f58:	f7 01       	movw	r30, r14
    1f5a:	86 81       	ldd	r24, Z+6	; 0x06
    1f5c:	97 81       	ldd	r25, Z+7	; 0x07
    1f5e:	02 c0       	rjmp	.+4      	; 0x1f64 <vfprintf+0x380>
    1f60:	8f ef       	ldi	r24, 0xFF	; 255
    1f62:	9f ef       	ldi	r25, 0xFF	; 255
    1f64:	2c 96       	adiw	r28, 0x0c	; 12
    1f66:	e2 e1       	ldi	r30, 0x12	; 18
    1f68:	f3 c0       	rjmp	.+486    	; 0x2150 <__epilogue_restores__>

00001f6a <calloc>:
    1f6a:	0f 93       	push	r16
    1f6c:	1f 93       	push	r17
    1f6e:	cf 93       	push	r28
    1f70:	df 93       	push	r29
    1f72:	86 9f       	mul	r24, r22
    1f74:	80 01       	movw	r16, r0
    1f76:	87 9f       	mul	r24, r23
    1f78:	10 0d       	add	r17, r0
    1f7a:	96 9f       	mul	r25, r22
    1f7c:	10 0d       	add	r17, r0
    1f7e:	11 24       	eor	r1, r1
    1f80:	c8 01       	movw	r24, r16
    1f82:	5e dc       	rcall	.-1860   	; 0x1840 <malloc>
    1f84:	ec 01       	movw	r28, r24
    1f86:	00 97       	sbiw	r24, 0x00	; 0
    1f88:	21 f0       	breq	.+8      	; 0x1f92 <calloc+0x28>
    1f8a:	a8 01       	movw	r20, r16
    1f8c:	60 e0       	ldi	r22, 0x00	; 0
    1f8e:	70 e0       	ldi	r23, 0x00	; 0
    1f90:	11 d0       	rcall	.+34     	; 0x1fb4 <memset>
    1f92:	ce 01       	movw	r24, r28
    1f94:	df 91       	pop	r29
    1f96:	cf 91       	pop	r28
    1f98:	1f 91       	pop	r17
    1f9a:	0f 91       	pop	r16
    1f9c:	08 95       	ret

00001f9e <strnlen_P>:
    1f9e:	fc 01       	movw	r30, r24
    1fa0:	05 90       	lpm	r0, Z+
    1fa2:	61 50       	subi	r22, 0x01	; 1
    1fa4:	70 40       	sbci	r23, 0x00	; 0
    1fa6:	01 10       	cpse	r0, r1
    1fa8:	d8 f7       	brcc	.-10     	; 0x1fa0 <strnlen_P+0x2>
    1faa:	80 95       	com	r24
    1fac:	90 95       	com	r25
    1fae:	8e 0f       	add	r24, r30
    1fb0:	9f 1f       	adc	r25, r31
    1fb2:	08 95       	ret

00001fb4 <memset>:
    1fb4:	dc 01       	movw	r26, r24
    1fb6:	01 c0       	rjmp	.+2      	; 0x1fba <memset+0x6>
    1fb8:	6d 93       	st	X+, r22
    1fba:	41 50       	subi	r20, 0x01	; 1
    1fbc:	50 40       	sbci	r21, 0x00	; 0
    1fbe:	e0 f7       	brcc	.-8      	; 0x1fb8 <memset+0x4>
    1fc0:	08 95       	ret

00001fc2 <strnlen>:
    1fc2:	fc 01       	movw	r30, r24
    1fc4:	61 50       	subi	r22, 0x01	; 1
    1fc6:	70 40       	sbci	r23, 0x00	; 0
    1fc8:	01 90       	ld	r0, Z+
    1fca:	01 10       	cpse	r0, r1
    1fcc:	d8 f7       	brcc	.-10     	; 0x1fc4 <strnlen+0x2>
    1fce:	80 95       	com	r24
    1fd0:	90 95       	com	r25
    1fd2:	8e 0f       	add	r24, r30
    1fd4:	9f 1f       	adc	r25, r31
    1fd6:	08 95       	ret

00001fd8 <strrev>:
    1fd8:	dc 01       	movw	r26, r24
    1fda:	fc 01       	movw	r30, r24
    1fdc:	67 2f       	mov	r22, r23
    1fde:	71 91       	ld	r23, Z+
    1fe0:	77 23       	and	r23, r23
    1fe2:	e1 f7       	brne	.-8      	; 0x1fdc <strrev+0x4>
    1fe4:	32 97       	sbiw	r30, 0x02	; 2
    1fe6:	04 c0       	rjmp	.+8      	; 0x1ff0 <strrev+0x18>
    1fe8:	7c 91       	ld	r23, X
    1fea:	6d 93       	st	X+, r22
    1fec:	70 83       	st	Z, r23
    1fee:	62 91       	ld	r22, -Z
    1ff0:	ae 17       	cp	r26, r30
    1ff2:	bf 07       	cpc	r27, r31
    1ff4:	c8 f3       	brcs	.-14     	; 0x1fe8 <strrev+0x10>
    1ff6:	08 95       	ret

00001ff8 <fputc>:
    1ff8:	0f 93       	push	r16
    1ffa:	1f 93       	push	r17
    1ffc:	cf 93       	push	r28
    1ffe:	df 93       	push	r29
    2000:	18 2f       	mov	r17, r24
    2002:	09 2f       	mov	r16, r25
    2004:	eb 01       	movw	r28, r22
    2006:	8b 81       	ldd	r24, Y+3	; 0x03
    2008:	81 fd       	sbrc	r24, 1
    200a:	03 c0       	rjmp	.+6      	; 0x2012 <fputc+0x1a>
    200c:	8f ef       	ldi	r24, 0xFF	; 255
    200e:	9f ef       	ldi	r25, 0xFF	; 255
    2010:	20 c0       	rjmp	.+64     	; 0x2052 <fputc+0x5a>
    2012:	82 ff       	sbrs	r24, 2
    2014:	10 c0       	rjmp	.+32     	; 0x2036 <fputc+0x3e>
    2016:	4e 81       	ldd	r20, Y+6	; 0x06
    2018:	5f 81       	ldd	r21, Y+7	; 0x07
    201a:	2c 81       	ldd	r18, Y+4	; 0x04
    201c:	3d 81       	ldd	r19, Y+5	; 0x05
    201e:	42 17       	cp	r20, r18
    2020:	53 07       	cpc	r21, r19
    2022:	7c f4       	brge	.+30     	; 0x2042 <fputc+0x4a>
    2024:	e8 81       	ld	r30, Y
    2026:	f9 81       	ldd	r31, Y+1	; 0x01
    2028:	9f 01       	movw	r18, r30
    202a:	2f 5f       	subi	r18, 0xFF	; 255
    202c:	3f 4f       	sbci	r19, 0xFF	; 255
    202e:	39 83       	std	Y+1, r19	; 0x01
    2030:	28 83       	st	Y, r18
    2032:	10 83       	st	Z, r17
    2034:	06 c0       	rjmp	.+12     	; 0x2042 <fputc+0x4a>
    2036:	e8 85       	ldd	r30, Y+8	; 0x08
    2038:	f9 85       	ldd	r31, Y+9	; 0x09
    203a:	81 2f       	mov	r24, r17
    203c:	09 95       	icall
    203e:	89 2b       	or	r24, r25
    2040:	29 f7       	brne	.-54     	; 0x200c <fputc+0x14>
    2042:	2e 81       	ldd	r18, Y+6	; 0x06
    2044:	3f 81       	ldd	r19, Y+7	; 0x07
    2046:	2f 5f       	subi	r18, 0xFF	; 255
    2048:	3f 4f       	sbci	r19, 0xFF	; 255
    204a:	3f 83       	std	Y+7, r19	; 0x07
    204c:	2e 83       	std	Y+6, r18	; 0x06
    204e:	81 2f       	mov	r24, r17
    2050:	90 2f       	mov	r25, r16
    2052:	df 91       	pop	r29
    2054:	cf 91       	pop	r28
    2056:	1f 91       	pop	r17
    2058:	0f 91       	pop	r16
    205a:	08 95       	ret

0000205c <__ultoa_invert>:
    205c:	fa 01       	movw	r30, r20
    205e:	aa 27       	eor	r26, r26
    2060:	28 30       	cpi	r18, 0x08	; 8
    2062:	51 f1       	breq	.+84     	; 0x20b8 <__ultoa_invert+0x5c>
    2064:	20 31       	cpi	r18, 0x10	; 16
    2066:	81 f1       	breq	.+96     	; 0x20c8 <__ultoa_invert+0x6c>
    2068:	e8 94       	clt
    206a:	6f 93       	push	r22
    206c:	6e 7f       	andi	r22, 0xFE	; 254
    206e:	6e 5f       	subi	r22, 0xFE	; 254
    2070:	7f 4f       	sbci	r23, 0xFF	; 255
    2072:	8f 4f       	sbci	r24, 0xFF	; 255
    2074:	9f 4f       	sbci	r25, 0xFF	; 255
    2076:	af 4f       	sbci	r26, 0xFF	; 255
    2078:	b1 e0       	ldi	r27, 0x01	; 1
    207a:	3e d0       	rcall	.+124    	; 0x20f8 <__ultoa_invert+0x9c>
    207c:	b4 e0       	ldi	r27, 0x04	; 4
    207e:	3c d0       	rcall	.+120    	; 0x20f8 <__ultoa_invert+0x9c>
    2080:	67 0f       	add	r22, r23
    2082:	78 1f       	adc	r23, r24
    2084:	89 1f       	adc	r24, r25
    2086:	9a 1f       	adc	r25, r26
    2088:	a1 1d       	adc	r26, r1
    208a:	68 0f       	add	r22, r24
    208c:	79 1f       	adc	r23, r25
    208e:	8a 1f       	adc	r24, r26
    2090:	91 1d       	adc	r25, r1
    2092:	a1 1d       	adc	r26, r1
    2094:	6a 0f       	add	r22, r26
    2096:	71 1d       	adc	r23, r1
    2098:	81 1d       	adc	r24, r1
    209a:	91 1d       	adc	r25, r1
    209c:	a1 1d       	adc	r26, r1
    209e:	20 d0       	rcall	.+64     	; 0x20e0 <__ultoa_invert+0x84>
    20a0:	09 f4       	brne	.+2      	; 0x20a4 <__ultoa_invert+0x48>
    20a2:	68 94       	set
    20a4:	3f 91       	pop	r19
    20a6:	2a e0       	ldi	r18, 0x0A	; 10
    20a8:	26 9f       	mul	r18, r22
    20aa:	11 24       	eor	r1, r1
    20ac:	30 19       	sub	r19, r0
    20ae:	30 5d       	subi	r19, 0xD0	; 208
    20b0:	31 93       	st	Z+, r19
    20b2:	de f6       	brtc	.-74     	; 0x206a <__ultoa_invert+0xe>
    20b4:	cf 01       	movw	r24, r30
    20b6:	08 95       	ret
    20b8:	46 2f       	mov	r20, r22
    20ba:	47 70       	andi	r20, 0x07	; 7
    20bc:	40 5d       	subi	r20, 0xD0	; 208
    20be:	41 93       	st	Z+, r20
    20c0:	b3 e0       	ldi	r27, 0x03	; 3
    20c2:	0f d0       	rcall	.+30     	; 0x20e2 <__ultoa_invert+0x86>
    20c4:	c9 f7       	brne	.-14     	; 0x20b8 <__ultoa_invert+0x5c>
    20c6:	f6 cf       	rjmp	.-20     	; 0x20b4 <__ultoa_invert+0x58>
    20c8:	46 2f       	mov	r20, r22
    20ca:	4f 70       	andi	r20, 0x0F	; 15
    20cc:	40 5d       	subi	r20, 0xD0	; 208
    20ce:	4a 33       	cpi	r20, 0x3A	; 58
    20d0:	18 f0       	brcs	.+6      	; 0x20d8 <__ultoa_invert+0x7c>
    20d2:	49 5d       	subi	r20, 0xD9	; 217
    20d4:	31 fd       	sbrc	r19, 1
    20d6:	40 52       	subi	r20, 0x20	; 32
    20d8:	41 93       	st	Z+, r20
    20da:	02 d0       	rcall	.+4      	; 0x20e0 <__ultoa_invert+0x84>
    20dc:	a9 f7       	brne	.-22     	; 0x20c8 <__ultoa_invert+0x6c>
    20de:	ea cf       	rjmp	.-44     	; 0x20b4 <__ultoa_invert+0x58>
    20e0:	b4 e0       	ldi	r27, 0x04	; 4
    20e2:	a6 95       	lsr	r26
    20e4:	97 95       	ror	r25
    20e6:	87 95       	ror	r24
    20e8:	77 95       	ror	r23
    20ea:	67 95       	ror	r22
    20ec:	ba 95       	dec	r27
    20ee:	c9 f7       	brne	.-14     	; 0x20e2 <__ultoa_invert+0x86>
    20f0:	00 97       	sbiw	r24, 0x00	; 0
    20f2:	61 05       	cpc	r22, r1
    20f4:	71 05       	cpc	r23, r1
    20f6:	08 95       	ret
    20f8:	9b 01       	movw	r18, r22
    20fa:	ac 01       	movw	r20, r24
    20fc:	0a 2e       	mov	r0, r26
    20fe:	06 94       	lsr	r0
    2100:	57 95       	ror	r21
    2102:	47 95       	ror	r20
    2104:	37 95       	ror	r19
    2106:	27 95       	ror	r18
    2108:	ba 95       	dec	r27
    210a:	c9 f7       	brne	.-14     	; 0x20fe <__ultoa_invert+0xa2>
    210c:	62 0f       	add	r22, r18
    210e:	73 1f       	adc	r23, r19
    2110:	84 1f       	adc	r24, r20
    2112:	95 1f       	adc	r25, r21
    2114:	a0 1d       	adc	r26, r0
    2116:	08 95       	ret

00002118 <__prologue_saves__>:
    2118:	2f 92       	push	r2
    211a:	3f 92       	push	r3
    211c:	4f 92       	push	r4
    211e:	5f 92       	push	r5
    2120:	6f 92       	push	r6
    2122:	7f 92       	push	r7
    2124:	8f 92       	push	r8
    2126:	9f 92       	push	r9
    2128:	af 92       	push	r10
    212a:	bf 92       	push	r11
    212c:	cf 92       	push	r12
    212e:	df 92       	push	r13
    2130:	ef 92       	push	r14
    2132:	ff 92       	push	r15
    2134:	0f 93       	push	r16
    2136:	1f 93       	push	r17
    2138:	cf 93       	push	r28
    213a:	df 93       	push	r29
    213c:	cd b7       	in	r28, 0x3d	; 61
    213e:	de b7       	in	r29, 0x3e	; 62
    2140:	ca 1b       	sub	r28, r26
    2142:	db 0b       	sbc	r29, r27
    2144:	0f b6       	in	r0, 0x3f	; 63
    2146:	f8 94       	cli
    2148:	de bf       	out	0x3e, r29	; 62
    214a:	0f be       	out	0x3f, r0	; 63
    214c:	cd bf       	out	0x3d, r28	; 61
    214e:	09 94       	ijmp

00002150 <__epilogue_restores__>:
    2150:	2a 88       	ldd	r2, Y+18	; 0x12
    2152:	39 88       	ldd	r3, Y+17	; 0x11
    2154:	48 88       	ldd	r4, Y+16	; 0x10
    2156:	5f 84       	ldd	r5, Y+15	; 0x0f
    2158:	6e 84       	ldd	r6, Y+14	; 0x0e
    215a:	7d 84       	ldd	r7, Y+13	; 0x0d
    215c:	8c 84       	ldd	r8, Y+12	; 0x0c
    215e:	9b 84       	ldd	r9, Y+11	; 0x0b
    2160:	aa 84       	ldd	r10, Y+10	; 0x0a
    2162:	b9 84       	ldd	r11, Y+9	; 0x09
    2164:	c8 84       	ldd	r12, Y+8	; 0x08
    2166:	df 80       	ldd	r13, Y+7	; 0x07
    2168:	ee 80       	ldd	r14, Y+6	; 0x06
    216a:	fd 80       	ldd	r15, Y+5	; 0x05
    216c:	0c 81       	ldd	r16, Y+4	; 0x04
    216e:	1b 81       	ldd	r17, Y+3	; 0x03
    2170:	aa 81       	ldd	r26, Y+2	; 0x02
    2172:	b9 81       	ldd	r27, Y+1	; 0x01
    2174:	ce 0f       	add	r28, r30
    2176:	d1 1d       	adc	r29, r1
    2178:	0f b6       	in	r0, 0x3f	; 63
    217a:	f8 94       	cli
    217c:	de bf       	out	0x3e, r29	; 62
    217e:	0f be       	out	0x3f, r0	; 63
    2180:	cd bf       	out	0x3d, r28	; 61
    2182:	ed 01       	movw	r28, r26
    2184:	08 95       	ret

00002186 <_exit>:
    2186:	f8 94       	cli

00002188 <__stop_program>:
    2188:	ff cf       	rjmp	.-2      	; 0x2188 <__stop_program>
